

Microchip MPLAB XC8 Assembler V2.31 build 20201012212115 
                                                                                               Tue Aug 31 11:27:35 2021

Microchip MPLAB XC8 C Compiler v2.31 (Free license) build 20201012212115 Og1 
     1                           	processor	16F887
     2                           	pagewidth 120
     3                           	opt	flic
     4                           	psect	strings,global,class=STRING,delta=2,noexec
     5                           	psect	cinit,global,class=CODE,merge=1,delta=2
     6                           	psect	bssCOMMON,global,class=COMMON,space=1,delta=1,noexec
     7                           	psect	bssBANK0,global,class=BANK0,space=1,delta=1,noexec
     8                           	psect	cstackCOMMON,global,class=COMMON,space=1,delta=1,noexec
     9                           	psect	cstackBANK0,global,class=BANK0,space=1,delta=1,noexec
    10                           	psect	maintext,global,class=CODE,split=1,delta=2
    11                           	psect	text1,local,class=CODE,merge=1,delta=2
    12                           	psect	text2,local,class=CODE,merge=1,delta=2
    13                           	psect	text3,local,class=CODE,merge=1,delta=2
    14                           	psect	text4,local,class=CODE,merge=1,delta=2
    15                           	psect	text5,local,class=CODE,merge=1,delta=2
    16                           	psect	text6,local,class=CODE,merge=1,delta=2
    17                           	psect	text7,local,class=CODE,merge=1,delta=2
    18                           	psect	text8,local,class=CODE,merge=1,delta=2
    19                           	psect	text9,local,class=CODE,merge=1,delta=2,group=1
    20                           	psect	text10,local,class=CODE,merge=1,delta=2,group=1
    21                           	psect	text11,local,class=CODE,merge=1,delta=2,group=1
    22                           	psect	text12,local,class=CODE,merge=1,delta=2,group=1
    23                           	psect	text13,local,class=CODE,merge=1,delta=2,group=1
    24                           	psect	text14,local,class=CODE,merge=1,delta=2
    25                           	psect	intentry,global,class=CODE,delta=2
    26                           	psect	config,global,abs,ovrld,class=CONFIG,space=4,delta=2,noexec
    27                           	dabs	1,0x7E,2
    28  0000                     
    29                           ; Version 2.20
    30                           ; Generated 12/02/2020 GMT
    31                           ; 
    32                           ; Copyright © 2020, Microchip Technology Inc. and its subsidiaries ("Microchip")
    33                           ; All rights reserved.
    34                           ; 
    35                           ; This software is developed by Microchip Technology Inc. and its subsidiaries ("Microch
      +                          ip").
    36                           ; 
    37                           ; Redistribution and use in source and binary forms, with or without modification, are
    38                           ; permitted provided that the following conditions are met:
    39                           ; 
    40                           ;     1. Redistributions of source code must retain the above copyright notice, this lis
      +                          t of
    41                           ;        conditions and the following disclaimer.
    42                           ; 
    43                           ;     2. Redistributions in binary form must reproduce the above copyright notice, this 
      +                          list
    44                           ;        of conditions and the following disclaimer in the documentation and/or other
    45                           ;        materials provided with the distribution.
    46                           ; 
    47                           ;     3. Microchip's name may not be used to endorse or promote products derived from th
      +                          is
    48                           ;        software without specific prior written permission.
    49                           ; 
    50                           ; THIS SOFTWARE IS PROVIDED BY MICROCHIP "AS IS" AND ANY EXPRESS OR IMPLIED WARRANTIES,
    51                           ; INCLUDING, BUT NOT LIMITED TO, THE IMPLIED WARRANTIES OF MERCHANTABILITY AND FITNESS F
      +                          OR
    52                           ; PURPOSE ARE DISCLAIMED.  IN NO EVENT SHALL MICROCHIP BE LIABLE FOR ANY DIRECT, INDIREC
      +                          T,
    53                           ; INCIDENTAL, SPECIAL, EXEMPLARY, OR CONSEQUENTIAL DAMAGES (INCLUDING BUT NOT LIMITED TO
    54                           ; PROCUREMENT OF SUBSTITUTE GOODS OR SERVICES; LOSS OF USE, DATA OR PROFITS; OR BUSINESS
    55                           ; INTERRUPTION) HOWSOEVER CAUSED AND ON ANY THEORY OF LIABILITY, WHETHER IN CONTRACT, ST
      +                          RICT
    56                           ; LIABILITY, OR TORT (INCLUDING NEGLIGENCE OR OTHERWISE) ARISING IN ANY WAY OUT OF THE U
      +                          SE OF
    57                           ; THIS SOFTWARE, EVEN IF ADVISED OF THE POSSIBILITY OF SUCH DAMAGE.
    58                           ; 
    59                           ; 
    60                           ; Code-generator required, PIC16F887 Definitions
    61                           ; 
    62                           ; SFR Addresses
    63  0000                     	;# 
    64  0001                     	;# 
    65  0002                     	;# 
    66  0003                     	;# 
    67  0004                     	;# 
    68  0005                     	;# 
    69  0006                     	;# 
    70  0007                     	;# 
    71  0008                     	;# 
    72  0009                     	;# 
    73  000A                     	;# 
    74  000B                     	;# 
    75  000C                     	;# 
    76  000D                     	;# 
    77  000E                     	;# 
    78  000E                     	;# 
    79  000F                     	;# 
    80  0010                     	;# 
    81  0011                     	;# 
    82  0012                     	;# 
    83  0013                     	;# 
    84  0014                     	;# 
    85  0015                     	;# 
    86  0015                     	;# 
    87  0016                     	;# 
    88  0017                     	;# 
    89  0018                     	;# 
    90  0019                     	;# 
    91  001A                     	;# 
    92  001B                     	;# 
    93  001B                     	;# 
    94  001C                     	;# 
    95  001D                     	;# 
    96  001E                     	;# 
    97  001F                     	;# 
    98  0081                     	;# 
    99  0085                     	;# 
   100  0086                     	;# 
   101  0087                     	;# 
   102  0088                     	;# 
   103  0089                     	;# 
   104  008C                     	;# 
   105  008D                     	;# 
   106  008E                     	;# 
   107  008F                     	;# 
   108  0090                     	;# 
   109  0091                     	;# 
   110  0092                     	;# 
   111  0093                     	;# 
   112  0093                     	;# 
   113  0093                     	;# 
   114  0094                     	;# 
   115  0095                     	;# 
   116  0096                     	;# 
   117  0097                     	;# 
   118  0098                     	;# 
   119  0099                     	;# 
   120  009A                     	;# 
   121  009B                     	;# 
   122  009C                     	;# 
   123  009D                     	;# 
   124  009E                     	;# 
   125  009F                     	;# 
   126  0105                     	;# 
   127  0107                     	;# 
   128  0108                     	;# 
   129  0109                     	;# 
   130  010C                     	;# 
   131  010C                     	;# 
   132  010D                     	;# 
   133  010E                     	;# 
   134  010F                     	;# 
   135  0185                     	;# 
   136  0187                     	;# 
   137  0188                     	;# 
   138  0189                     	;# 
   139  018C                     	;# 
   140  018D                     	;# 
   141  0000                     	;# 
   142  0001                     	;# 
   143  0002                     	;# 
   144  0003                     	;# 
   145  0004                     	;# 
   146  0005                     	;# 
   147  0006                     	;# 
   148  0007                     	;# 
   149  0008                     	;# 
   150  0009                     	;# 
   151  000A                     	;# 
   152  000B                     	;# 
   153  000C                     	;# 
   154  000D                     	;# 
   155  000E                     	;# 
   156  000E                     	;# 
   157  000F                     	;# 
   158  0010                     	;# 
   159  0011                     	;# 
   160  0012                     	;# 
   161  0013                     	;# 
   162  0014                     	;# 
   163  0015                     	;# 
   164  0015                     	;# 
   165  0016                     	;# 
   166  0017                     	;# 
   167  0018                     	;# 
   168  0019                     	;# 
   169  001A                     	;# 
   170  001B                     	;# 
   171  001B                     	;# 
   172  001C                     	;# 
   173  001D                     	;# 
   174  001E                     	;# 
   175  001F                     	;# 
   176  0081                     	;# 
   177  0085                     	;# 
   178  0086                     	;# 
   179  0087                     	;# 
   180  0088                     	;# 
   181  0089                     	;# 
   182  008C                     	;# 
   183  008D                     	;# 
   184  008E                     	;# 
   185  008F                     	;# 
   186  0090                     	;# 
   187  0091                     	;# 
   188  0092                     	;# 
   189  0093                     	;# 
   190  0093                     	;# 
   191  0093                     	;# 
   192  0094                     	;# 
   193  0095                     	;# 
   194  0096                     	;# 
   195  0097                     	;# 
   196  0098                     	;# 
   197  0099                     	;# 
   198  009A                     	;# 
   199  009B                     	;# 
   200  009C                     	;# 
   201  009D                     	;# 
   202  009E                     	;# 
   203  009F                     	;# 
   204  0105                     	;# 
   205  0107                     	;# 
   206  0108                     	;# 
   207  0109                     	;# 
   208  010C                     	;# 
   209  010C                     	;# 
   210  010D                     	;# 
   211  010E                     	;# 
   212  010F                     	;# 
   213  0185                     	;# 
   214  0187                     	;# 
   215  0188                     	;# 
   216  0189                     	;# 
   217  018C                     	;# 
   218  018D                     	;# 
   219  0000                     	;# 
   220  0001                     	;# 
   221  0002                     	;# 
   222  0003                     	;# 
   223  0004                     	;# 
   224  0005                     	;# 
   225  0006                     	;# 
   226  0007                     	;# 
   227  0008                     	;# 
   228  0009                     	;# 
   229  000A                     	;# 
   230  000B                     	;# 
   231  000C                     	;# 
   232  000D                     	;# 
   233  000E                     	;# 
   234  000E                     	;# 
   235  000F                     	;# 
   236  0010                     	;# 
   237  0011                     	;# 
   238  0012                     	;# 
   239  0013                     	;# 
   240  0014                     	;# 
   241  0015                     	;# 
   242  0015                     	;# 
   243  0016                     	;# 
   244  0017                     	;# 
   245  0018                     	;# 
   246  0019                     	;# 
   247  001A                     	;# 
   248  001B                     	;# 
   249  001B                     	;# 
   250  001C                     	;# 
   251  001D                     	;# 
   252  001E                     	;# 
   253  001F                     	;# 
   254  0081                     	;# 
   255  0085                     	;# 
   256  0086                     	;# 
   257  0087                     	;# 
   258  0088                     	;# 
   259  0089                     	;# 
   260  008C                     	;# 
   261  008D                     	;# 
   262  008E                     	;# 
   263  008F                     	;# 
   264  0090                     	;# 
   265  0091                     	;# 
   266  0092                     	;# 
   267  0093                     	;# 
   268  0093                     	;# 
   269  0093                     	;# 
   270  0094                     	;# 
   271  0095                     	;# 
   272  0096                     	;# 
   273  0097                     	;# 
   274  0098                     	;# 
   275  0099                     	;# 
   276  009A                     	;# 
   277  009B                     	;# 
   278  009C                     	;# 
   279  009D                     	;# 
   280  009E                     	;# 
   281  009F                     	;# 
   282  0105                     	;# 
   283  0107                     	;# 
   284  0108                     	;# 
   285  0109                     	;# 
   286  010C                     	;# 
   287  010C                     	;# 
   288  010D                     	;# 
   289  010E                     	;# 
   290  010F                     	;# 
   291  0185                     	;# 
   292  0187                     	;# 
   293  0188                     	;# 
   294  0189                     	;# 
   295  018C                     	;# 
   296  018D                     	;# 
   297  0010                     _T1CON	set	16
   298  000C                     _PIR1bits	set	12
   299  000B                     _INTCONbits	set	11
   300  0009                     _PORTE	set	9
   301  0008                     _PORTD	set	8
   302  0007                     _PORTC	set	7
   303  0006                     _PORTB	set	6
   304  0005                     _PORTA	set	5
   305  000E                     _TMR1L	set	14
   306  000F                     _TMR1H	set	15
   307  0049                     _RE1	set	73
   308  0048                     _RE0	set	72
   309  0047                     _RD7	set	71
   310  0046                     _RD6	set	70
   311  0045                     _RD5	set	69
   312  0044                     _RD4	set	68
   313  0043                     _RD3	set	67
   314  0042                     _RD2	set	66
   315  0041                     _RD1	set	65
   316  0040                     _RD0	set	64
   317  0080                     _TMR1ON	set	128
   318  0034                     _RB4	set	52
   319  0030                     _RB0	set	48
   320  008F                     _OSCCONbits	set	143
   321  008C                     _PIE1bits	set	140
   322  0089                     _TRISE	set	137
   323  0088                     _TRISD	set	136
   324  0086                     _TRISBbits	set	134
   325  0189                     _ANSELH	set	393
   326  0188                     _ANSEL	set	392
   327                           
   328                           	psect	strings
   329  0674                     __pstrings:
   330  0674                     stringtab:
   331  0674                     __stringtab:
   332  0674                     stringcode:	
   333                           ;	String table - string pointers are 1 byte each
   334                           
   335  0674                     stringdir:
   336  0674  3006               	movlw	high stringdir
   337  0675  008A               	movwf	10
   338  0676  0804               	movf	4,w
   339  0677  0A84               	incf	4,f
   340  0678  0782               	addwf	2,f
   341  0679                     __stringbase:
   342  0679  3400               	retlw	0
   343  067A                     __end_of__stringtab:
   344  067A                     STR_1:
   345  067A  3444               	retlw	68	;'D'
   346  067B  3449               	retlw	73	;'I'
   347  067C  3453               	retlw	83	;'S'
   348  067D  3454               	retlw	84	;'T'
   349  067E  3441               	retlw	65	;'A'
   350  067F  344E               	retlw	78	;'N'
   351  0680  3443               	retlw	67	;'C'
   352  0681  3449               	retlw	73	;'I'
   353  0682  3441               	retlw	65	;'A'
   354  0683  3420               	retlw	32	;' '
   355  0684  343D               	retlw	61	;'='
   356  0685  3420               	retlw	32	;' '
   357  0686  3400               	retlw	0
   358                           
   359                           	psect	cinit
   360  000F                     start_initialization:	
   361                           ; #config settings
   362                           
   363  000F                     __initialization:
   364                           
   365                           ; Clear objects allocated to COMMON
   366  000F  01FB               	clrf	__pbssCOMMON& (0+127)
   367                           
   368                           ; Clear objects allocated to BANK0
   369  0010  1283               	bcf	3,5	;RP0=0, select bank0
   370  0011  1303               	bcf	3,6	;RP1=0, select bank0
   371  0012  01CF               	clrf	__pbssBANK0& (0+127)
   372  0013  01D0               	clrf	(__pbssBANK0+1)& (0+127)
   373  0014  01D1               	clrf	(__pbssBANK0+2)& (0+127)
   374  0015  01D2               	clrf	(__pbssBANK0+3)& (0+127)
   375  0016                     end_of_initialization:	
   376                           ;End of C runtime variable initialization code
   377                           
   378  0016                     __end_of__initialization:
   379  0016  0183               	clrf	3
   380  0017  120A  118A  29F7   	ljmp	_main	;jump to C main() function
   381                           
   382                           	psect	bssCOMMON
   383  007B                     __pbssCOMMON:
   384  007B                     _BUFFER:
   385  007B                     	ds	1
   386                           
   387                           	psect	bssBANK0
   388  004F                     __pbssBANK0:
   389  004F                     _V1:
   390  004F                     	ds	4
   391                           
   392                           	psect	cstackCOMMON
   393  0070                     __pcstackCOMMON:
   394  0070                     ?_setup:
   395  0070                     ?_configLCD:	
   396                           ; 1 bytes @ 0x0
   397                           
   398  0070                     ?_clear_LCD:	
   399                           ; 1 bytes @ 0x0
   400                           
   401  0070                     ?_write_string:	
   402                           ; 1 bytes @ 0x0
   403                           
   404  0070                     ?_write_char:	
   405                           ; 1 bytes @ 0x0
   406                           
   407  0070                     ?_ISR:	
   408                           ; 1 bytes @ 0x0
   409                           
   410  0070                     ??_ISR:	
   411                           ; 1 bytes @ 0x0
   412                           
   413  0070                     ?_main:	
   414                           ; 1 bytes @ 0x0
   415                           
   416  0070                     ?_pin:	
   417                           ; 1 bytes @ 0x0
   418                           
   419  0070                     ?_CMDs:	
   420                           ; 1 bytes @ 0x0
   421                           
   422                           
   423                           ; 1 bytes @ 0x0
   424  0070                     	ds	2
   425  0072                     ??_setup:
   426  0072                     ??_pin:	
   427                           ; 1 bytes @ 0x2
   428                           
   429  0072                     ?___awdiv:	
   430                           ; 1 bytes @ 0x2
   431                           
   432  0072                     ?___awmod:	
   433                           ; 2 bytes @ 0x2
   434                           
   435  0072                     ?___xxtofl:	
   436                           ; 2 bytes @ 0x2
   437                           
   438  0072                     pin@a:	
   439                           ; 4 bytes @ 0x2
   440                           
   441  0072                     ___awdiv@divisor:	
   442                           ; 1 bytes @ 0x2
   443                           
   444  0072                     ___awmod@divisor:	
   445                           ; 2 bytes @ 0x2
   446                           
   447  0072                     ___xxtofl@val:	
   448                           ; 2 bytes @ 0x2
   449                           
   450                           
   451                           ; 4 bytes @ 0x2
   452  0072                     	ds	1
   453  0073                     ??_write_char:
   454  0073                     ??_CMDs:	
   455                           ; 1 bytes @ 0x3
   456                           
   457                           
   458                           ; 1 bytes @ 0x3
   459  0073                     	ds	1
   460  0074                     write_char@a:
   461  0074                     ___awdiv@dividend:	
   462                           ; 1 bytes @ 0x4
   463                           
   464  0074                     ___awmod@dividend:	
   465                           ; 2 bytes @ 0x4
   466                           
   467                           
   468                           ; 2 bytes @ 0x4
   469  0074                     	ds	1
   470  0075                     ??_write_string:
   471  0075                     CMDs@a:	
   472                           ; 1 bytes @ 0x5
   473                           
   474  0075                     write_string@i:	
   475                           ; 1 bytes @ 0x5
   476                           
   477                           
   478                           ; 2 bytes @ 0x5
   479  0075                     	ds	1
   480  0076                     ??_configLCD:
   481  0076                     ??_clear_LCD:	
   482                           ; 1 bytes @ 0x6
   483                           
   484  0076                     ?_cursor:	
   485                           ; 1 bytes @ 0x6
   486                           
   487  0076                     ??___awdiv:	
   488                           ; 1 bytes @ 0x6
   489                           
   490  0076                     ??___awmod:	
   491                           ; 1 bytes @ 0x6
   492                           
   493  0076                     ??___xxtofl:	
   494                           ; 1 bytes @ 0x6
   495                           
   496  0076                     cursor@b:	
   497                           ; 1 bytes @ 0x6
   498                           
   499                           
   500                           ; 1 bytes @ 0x6
   501  0076                     	ds	1
   502  0077                     ??_cursor:
   503  0077                     write_string@a:	
   504                           ; 1 bytes @ 0x7
   505                           
   506  0077                     ___awdiv@counter:	
   507                           ; 1 bytes @ 0x7
   508                           
   509  0077                     ___awmod@counter:	
   510                           ; 1 bytes @ 0x7
   511                           
   512                           
   513                           ; 1 bytes @ 0x7
   514  0077                     	ds	1
   515  0078                     cursor@a:
   516  0078                     ___awdiv@sign:	
   517                           ; 1 bytes @ 0x8
   518                           
   519  0078                     ___awmod@sign:	
   520                           ; 1 bytes @ 0x8
   521                           
   522                           
   523                           ; 1 bytes @ 0x8
   524  0078                     	ds	1
   525  0079                     cursor@x:
   526  0079                     ___awdiv@quotient:	
   527                           ; 1 bytes @ 0x9
   528                           
   529                           
   530                           ; 2 bytes @ 0x9
   531  0079                     	ds	2
   532                           
   533                           	psect	cstackBANK0
   534  0020                     __pcstackBANK0:
   535  0020                     ___xxtofl@sign:
   536                           
   537                           ; 1 bytes @ 0x0
   538  0020                     	ds	1
   539  0021                     ___xxtofl@exp:
   540                           
   541                           ; 1 bytes @ 0x1
   542  0021                     	ds	1
   543  0022                     ___xxtofl@arg:
   544                           
   545                           ; 4 bytes @ 0x2
   546  0022                     	ds	4
   547  0026                     ?___fldiv:
   548  0026                     ___fldiv@a:	
   549                           ; 4 bytes @ 0x6
   550                           
   551                           
   552                           ; 4 bytes @ 0x6
   553  0026                     	ds	4
   554  002A                     ___fldiv@b:
   555                           
   556                           ; 4 bytes @ 0xA
   557  002A                     	ds	4
   558  002E                     ??___fldiv:
   559                           
   560                           ; 1 bytes @ 0xE
   561  002E                     	ds	5
   562  0033                     ___fldiv@rem:
   563                           
   564                           ; 4 bytes @ 0x13
   565  0033                     	ds	4
   566  0037                     ___fldiv@sign:
   567                           
   568                           ; 1 bytes @ 0x17
   569  0037                     	ds	1
   570  0038                     ___fldiv@new_exp:
   571                           
   572                           ; 2 bytes @ 0x18
   573  0038                     	ds	2
   574  003A                     ___fldiv@grs:
   575                           
   576                           ; 4 bytes @ 0x1A
   577  003A                     	ds	4
   578  003E                     ___fldiv@bexp:
   579                           
   580                           ; 1 bytes @ 0x1E
   581  003E                     	ds	1
   582  003F                     ___fldiv@aexp:
   583                           
   584                           ; 1 bytes @ 0x1F
   585  003F                     	ds	1
   586  0040                     ?___fltol:
   587  0040                     ___fltol@f1:	
   588                           ; 4 bytes @ 0x20
   589                           
   590                           
   591                           ; 4 bytes @ 0x20
   592  0040                     	ds	4
   593  0044                     ??___fltol:
   594                           
   595                           ; 1 bytes @ 0x24
   596  0044                     	ds	5
   597  0049                     ___fltol@sign1:
   598                           
   599                           ; 1 bytes @ 0x29
   600  0049                     	ds	1
   601  004A                     ___fltol@exp1:
   602                           
   603                           ; 1 bytes @ 0x2A
   604  004A                     	ds	1
   605  004B                     ??_main:
   606                           
   607                           ; 1 bytes @ 0x2B
   608  004B                     	ds	2
   609  004D                     main@a:
   610                           
   611                           ; 2 bytes @ 0x2D
   612  004D                     	ds	2
   613                           
   614                           	psect	maintext
   615  01F7                     __pmaintext:	
   616 ;;
   617 ;;Main: autosize = 0, tempsize = 2, incstack = 0, save=0
   618 ;;
   619 ;; *************** function _main *****************
   620 ;; Defined at:
   621 ;;		line 62 in file "ultraso.c"
   622 ;; Parameters:    Size  Location     Type
   623 ;;		None
   624 ;; Auto vars:     Size  Location     Type
   625 ;;  a               2   45[BANK0 ] int 
   626 ;; Return value:  Size  Location     Type
   627 ;;                  1    wreg      void 
   628 ;; Registers used:
   629 ;;		wreg, fsr0l, fsr0h, status,2, status,0, btemp+1, pclath, cstack
   630 ;; Tracked objects:
   631 ;;		On entry : B00/0
   632 ;;		On exit  : 0/0
   633 ;;		Unchanged: 0/0
   634 ;; Data sizes:     COMMON   BANK0   BANK1   BANK3   BANK2
   635 ;;      Params:         0       0       0       0       0
   636 ;;      Locals:         0       2       0       0       0
   637 ;;      Temps:          0       2       0       0       0
   638 ;;      Totals:         0       4       0       0       0
   639 ;;Total ram usage:        4 bytes
   640 ;; Hardware stack levels required when called:    4
   641 ;; This function calls:
   642 ;;		___awdiv
   643 ;;		___awmod
   644 ;;		___fldiv
   645 ;;		___fltol
   646 ;;		___xxtofl
   647 ;;		_clear_LCD
   648 ;;		_configLCD
   649 ;;		_cursor
   650 ;;		_setup
   651 ;;		_write_char
   652 ;;		_write_string
   653 ;; This function is called by:
   654 ;;		Startup code after reset
   655 ;; This function uses a non-reentrant model
   656 ;;
   657                           
   658                           
   659                           ;psect for function _main
   660  01F7                     _main:
   661  01F7                     l1702:	
   662                           ;incstack = 0
   663                           ; Regs used in _main: [wreg-fsr0h+status,2+status,0+btemp+1+pclath+cstack]
   664                           
   665                           
   666                           ;ultraso.c: 63:     int a;;ultraso.c: 64:     setup();
   667  01F7  120A  118A  25F0  120A  118A  	fcall	_setup
   668                           
   669                           ;ultraso.c: 65:     configLCD();
   670  01FC  120A  118A  24CE  120A  118A  	fcall	_configLCD
   671                           
   672                           ;ultraso.c: 66:     clear_LCD();
   673  0201  120A  118A  2687  120A  118A  	fcall	_clear_LCD
   674  0206                     l1704:
   675                           
   676                           ;ultraso.c: 68:         TMR1H = 0;
   677  0206  1283               	bcf	3,5	;RP0=0, select bank0
   678  0207  1303               	bcf	3,6	;RP1=0, select bank0
   679  0208  018F               	clrf	15	;volatile
   680  0209                     l1706:
   681                           
   682                           ;ultraso.c: 69:         TMR1L = 0;
   683  0209  018E               	clrf	14	;volatile
   684  020A                     l1708:
   685                           
   686                           ;ultraso.c: 70:         RB0 = 1;
   687  020A  1406               	bsf	6,0	;volatile
   688  020B                     l1710:
   689                           
   690                           ;ultraso.c: 71:         _delay((unsigned long)((10)*(4000000/4000000.0)));
   691  020B  3002               	movlw	2
   692  020C  1283               	bcf	3,5	;RP0=0, select bank0
   693  020D  1303               	bcf	3,6	;RP1=0, select bank0
   694  020E  00CB               	movwf	??_main
   695  020F                     u1897:
   696  020F  0BCB               	decfsz	??_main,f
   697  0210  2A0F               	goto	u1897
   698  0211  0000               	nop
   699  0212                     l1712:
   700                           
   701                           ;ultraso.c: 72:         RB0 = 0;
   702  0212  1283               	bcf	3,5	;RP0=0, select bank0
   703  0213  1303               	bcf	3,6	;RP1=0, select bank0
   704  0214  1006               	bcf	6,0	;volatile
   705  0215                     l69:	
   706                           ;ultraso.c: 73:         while(!RB4);
   707                           
   708  0215  1E06               	btfss	6,4	;volatile
   709  0216  2A18               	goto	u1851
   710  0217  2A19               	goto	u1850
   711  0218                     u1851:
   712  0218  2A15               	goto	l69
   713  0219                     u1850:
   714  0219                     l71:
   715                           
   716                           ;ultraso.c: 74:         TMR1ON = 1;
   717  0219  1410               	bsf	16,0	;volatile
   718  021A                     l72:	
   719                           ;ultraso.c: 75:         while(RB4);
   720                           
   721  021A  1A06               	btfsc	6,4	;volatile
   722  021B  2A1D               	goto	u1861
   723  021C  2A1E               	goto	u1860
   724  021D                     u1861:
   725  021D  2A1A               	goto	l72
   726  021E                     u1860:
   727  021E                     l74:
   728                           
   729                           ;ultraso.c: 76:         TMR1ON = 0;
   730  021E  1010               	bcf	16,0	;volatile
   731  021F                     l1714:
   732                           
   733                           ;ultraso.c: 77:         a = (TMR1L | (TMR1H<<8));
   734  021F  080F               	movf	15,w	;volatile
   735  0220  00CE               	movwf	main@a+1
   736  0221  080E               	movf	14,w	;volatile
   737  0222  00CD               	movwf	main@a
   738  0223                     l1716:
   739                           
   740                           ;ultraso.c: 78:         a = a/58.82;
   741  0223  084D               	movf	main@a,w
   742  0224  00F2               	movwf	___xxtofl@val
   743  0225  084E               	movf	main@a+1,w
   744  0226  00F3               	movwf	___xxtofl@val+1
   745  0227  3000               	movlw	0
   746  0228  1BF3               	btfsc	___xxtofl@val+1,7
   747  0229  30FF               	movlw	255
   748  022A  00F4               	movwf	___xxtofl@val+2
   749  022B  00F5               	movwf	___xxtofl@val+3
   750  022C  3001               	movlw	1
   751  022D  120A  118A  232F  120A  118A  	fcall	___xxtofl
   752  0232  0875               	movf	?___xxtofl+3,w
   753  0233  1283               	bcf	3,5	;RP0=0, select bank0
   754  0234  1303               	bcf	3,6	;RP1=0, select bank0
   755  0235  00AD               	movwf	___fldiv@b+3
   756  0236  0874               	movf	?___xxtofl+2,w
   757  0237  00AC               	movwf	___fldiv@b+2
   758  0238  0873               	movf	?___xxtofl+1,w
   759  0239  00AB               	movwf	___fldiv@b+1
   760  023A  0872               	movf	?___xxtofl,w
   761  023B  00AA               	movwf	___fldiv@b
   762  023C  3042               	movlw	66
   763  023D  00A9               	movwf	___fldiv@a+3
   764  023E  306B               	movlw	107
   765  023F  00A8               	movwf	___fldiv@a+2
   766  0240  3047               	movlw	71
   767  0241  00A7               	movwf	___fldiv@a+1
   768  0242  30AE               	movlw	174
   769  0243  00A6               	movwf	___fldiv@a
   770  0244  120A  118A  201A  120A  118A  	fcall	___fldiv
   771  0249  1283               	bcf	3,5	;RP0=0, select bank0
   772  024A  1303               	bcf	3,6	;RP1=0, select bank0
   773  024B  0829               	movf	?___fldiv+3,w
   774  024C  00C3               	movwf	___fltol@f1+3
   775  024D  0828               	movf	?___fldiv+2,w
   776  024E  00C2               	movwf	___fltol@f1+2
   777  024F  0827               	movf	?___fldiv+1,w
   778  0250  00C1               	movwf	___fltol@f1+1
   779  0251  0826               	movf	?___fldiv,w
   780  0252  00C0               	movwf	___fltol@f1
   781  0253  120A  118A  23EB  120A  118A  	fcall	___fltol
   782  0258  1283               	bcf	3,5	;RP0=0, select bank0
   783  0259  1303               	bcf	3,6	;RP1=0, select bank0
   784  025A  0841               	movf	?___fltol+1,w
   785  025B  00CE               	movwf	main@a+1
   786  025C  0840               	movf	?___fltol,w
   787  025D  00CD               	movwf	main@a
   788  025E                     l1718:
   789                           
   790                           ;ultraso.c: 79:         a = a + 1;
   791  025E  084D               	movf	main@a,w
   792  025F  3E01               	addlw	1
   793  0260  00CD               	movwf	main@a
   794  0261  084E               	movf	main@a+1,w
   795  0262  1803               	skipnc
   796  0263  3E01               	addlw	1
   797  0264  3E00               	addlw	0
   798  0265  00CE               	movwf	main@a+1
   799  0266                     l1720:
   800                           
   801                           ;ultraso.c: 80:         if(a>=2 && a<=400){
   802  0266  084E               	movf	main@a+1,w
   803  0267  3A80               	xorlw	128
   804  0268  00FF               	movwf	btemp+1
   805  0269  3080               	movlw	128
   806  026A  027F               	subwf	btemp+1,w
   807  026B  1D03               	skipz
   808  026C  2A6F               	goto	u1875
   809  026D  3002               	movlw	2
   810  026E  024D               	subwf	main@a,w
   811  026F                     u1875:
   812  026F  1C03               	skipc
   813  0270  2A72               	goto	u1871
   814  0271  2A73               	goto	u1870
   815  0272                     u1871:
   816  0272  2B21               	goto	l1744
   817  0273                     u1870:
   818  0273                     l1722:
   819  0273  1283               	bcf	3,5	;RP0=0, select bank0
   820  0274  1303               	bcf	3,6	;RP1=0, select bank0
   821  0275  084E               	movf	main@a+1,w
   822  0276  3A80               	xorlw	128
   823  0277  00FF               	movwf	btemp+1
   824  0278  3081               	movlw	129
   825  0279  027F               	subwf	btemp+1,w
   826  027A  1D03               	skipz
   827  027B  2A7E               	goto	u1885
   828  027C  3091               	movlw	145
   829  027D  024D               	subwf	main@a,w
   830  027E                     u1885:
   831  027E  1803               	skipnc
   832  027F  2A81               	goto	u1881
   833  0280  2A82               	goto	u1880
   834  0281                     u1881:
   835  0281  2B21               	goto	l1744
   836  0282                     u1880:
   837  0282                     l1724:
   838                           
   839                           ;ultraso.c: 81:         clear_LCD();
   840  0282  120A  118A  2687  120A  118A  	fcall	_clear_LCD
   841                           
   842                           ;ultraso.c: 82:         cursor(1,1);
   843  0287  01F6               	clrf	cursor@b
   844  0288  0AF6               	incf	cursor@b,f
   845  0289  3001               	movlw	1
   846  028A  120A  118A  2614  120A  118A  	fcall	_cursor
   847  028F                     l1726:
   848                           
   849                           ;ultraso.c: 83:         write_string("DISTANCIA = ");
   850  028F  3001               	movlw	(low ((STR_1-__stringbase)| (0+32768)))& (0+255)
   851  0290  120A  118A  25CB  120A  118A  	fcall	_write_string
   852  0295                     l1728:
   853                           
   854                           ;ultraso.c: 85:         cursor(1,14);
   855  0295  300E               	movlw	14
   856  0296  1283               	bcf	3,5	;RP0=0, select bank0
   857  0297  1303               	bcf	3,6	;RP1=0, select bank0
   858  0298  00CB               	movwf	??_main
   859  0299  084B               	movf	??_main,w
   860  029A  00F6               	movwf	cursor@b
   861  029B  3001               	movlw	1
   862  029C  120A  118A  2614  120A  118A  	fcall	_cursor
   863  02A1                     l1730:
   864                           
   865                           ;ultraso.c: 86:         write_char(a%10 +48);
   866  02A1  300A               	movlw	10
   867  02A2  00F2               	movwf	___awmod@divisor
   868  02A3  3000               	movlw	0
   869  02A4  00F3               	movwf	___awmod@divisor+1
   870  02A5  1283               	bcf	3,5	;RP0=0, select bank0
   871  02A6  1303               	bcf	3,6	;RP1=0, select bank0
   872  02A7  084E               	movf	main@a+1,w
   873  02A8  00F5               	movwf	___awmod@dividend+1
   874  02A9  084D               	movf	main@a,w
   875  02AA  00F4               	movwf	___awmod@dividend
   876  02AB  120A  118A  2534  120A  118A  	fcall	___awmod
   877  02B0  0872               	movf	?___awmod,w
   878  02B1  3E30               	addlw	48
   879  02B2  120A  118A  2658  120A  118A  	fcall	_write_char
   880  02B7                     l1732:
   881                           
   882                           ;ultraso.c: 88:         a = a/10;
   883  02B7  300A               	movlw	10
   884  02B8  00F2               	movwf	___awdiv@divisor
   885  02B9  3000               	movlw	0
   886  02BA  00F3               	movwf	___awdiv@divisor+1
   887  02BB  1283               	bcf	3,5	;RP0=0, select bank0
   888  02BC  1303               	bcf	3,6	;RP1=0, select bank0
   889  02BD  084E               	movf	main@a+1,w
   890  02BE  00F5               	movwf	___awdiv@dividend+1
   891  02BF  084D               	movf	main@a,w
   892  02C0  00F4               	movwf	___awdiv@dividend
   893  02C1  120A  118A  2467  120A  118A  	fcall	___awdiv
   894  02C6  0873               	movf	?___awdiv+1,w
   895  02C7  1283               	bcf	3,5	;RP0=0, select bank0
   896  02C8  1303               	bcf	3,6	;RP1=0, select bank0
   897  02C9  00CE               	movwf	main@a+1
   898  02CA  0872               	movf	?___awdiv,w
   899  02CB  00CD               	movwf	main@a
   900  02CC                     l1734:
   901                           
   902                           ;ultraso.c: 89:         cursor(1,13);
   903  02CC  300D               	movlw	13
   904  02CD  00CB               	movwf	??_main
   905  02CE  084B               	movf	??_main,w
   906  02CF  00F6               	movwf	cursor@b
   907  02D0  3001               	movlw	1
   908  02D1  120A  118A  2614  120A  118A  	fcall	_cursor
   909  02D6                     l1736:
   910                           
   911                           ;ultraso.c: 90:         write_char(a%10 +48);
   912  02D6  300A               	movlw	10
   913  02D7  00F2               	movwf	___awmod@divisor
   914  02D8  3000               	movlw	0
   915  02D9  00F3               	movwf	___awmod@divisor+1
   916  02DA  1283               	bcf	3,5	;RP0=0, select bank0
   917  02DB  1303               	bcf	3,6	;RP1=0, select bank0
   918  02DC  084E               	movf	main@a+1,w
   919  02DD  00F5               	movwf	___awmod@dividend+1
   920  02DE  084D               	movf	main@a,w
   921  02DF  00F4               	movwf	___awmod@dividend
   922  02E0  120A  118A  2534  120A  118A  	fcall	___awmod
   923  02E5  0872               	movf	?___awmod,w
   924  02E6  3E30               	addlw	48
   925  02E7  120A  118A  2658  120A  118A  	fcall	_write_char
   926  02EC                     l1738:
   927                           
   928                           ;ultraso.c: 92:         a = a/10;
   929  02EC  300A               	movlw	10
   930  02ED  00F2               	movwf	___awdiv@divisor
   931  02EE  3000               	movlw	0
   932  02EF  00F3               	movwf	___awdiv@divisor+1
   933  02F0  1283               	bcf	3,5	;RP0=0, select bank0
   934  02F1  1303               	bcf	3,6	;RP1=0, select bank0
   935  02F2  084E               	movf	main@a+1,w
   936  02F3  00F5               	movwf	___awdiv@dividend+1
   937  02F4  084D               	movf	main@a,w
   938  02F5  00F4               	movwf	___awdiv@dividend
   939  02F6  120A  118A  2467  120A  118A  	fcall	___awdiv
   940  02FB  0873               	movf	?___awdiv+1,w
   941  02FC  1283               	bcf	3,5	;RP0=0, select bank0
   942  02FD  1303               	bcf	3,6	;RP1=0, select bank0
   943  02FE  00CE               	movwf	main@a+1
   944  02FF  0872               	movf	?___awdiv,w
   945  0300  00CD               	movwf	main@a
   946  0301                     l1740:
   947                           
   948                           ;ultraso.c: 93:         cursor(1,12);
   949  0301  300C               	movlw	12
   950  0302  00CB               	movwf	??_main
   951  0303  084B               	movf	??_main,w
   952  0304  00F6               	movwf	cursor@b
   953  0305  3001               	movlw	1
   954  0306  120A  118A  2614  120A  118A  	fcall	_cursor
   955  030B                     l1742:
   956                           
   957                           ;ultraso.c: 94:         write_char(a%10 +48);
   958  030B  300A               	movlw	10
   959  030C  00F2               	movwf	___awmod@divisor
   960  030D  3000               	movlw	0
   961  030E  00F3               	movwf	___awmod@divisor+1
   962  030F  1283               	bcf	3,5	;RP0=0, select bank0
   963  0310  1303               	bcf	3,6	;RP1=0, select bank0
   964  0311  084E               	movf	main@a+1,w
   965  0312  00F5               	movwf	___awmod@dividend+1
   966  0313  084D               	movf	main@a,w
   967  0314  00F4               	movwf	___awmod@dividend
   968  0315  120A  118A  2534  120A  118A  	fcall	___awmod
   969  031A  0872               	movf	?___awmod,w
   970  031B  3E30               	addlw	48
   971  031C  120A  118A  2658  120A  118A  	fcall	_write_char
   972  0321                     l1744:
   973                           
   974                           ;ultraso.c: 97:         _delay((unsigned long)((100)*(4000000/4000.0)));
   975  0321  3082               	movlw	130
   976  0322  1283               	bcf	3,5	;RP0=0, select bank0
   977  0323  1303               	bcf	3,6	;RP1=0, select bank0
   978  0324  00CC               	movwf	??_main+1
   979  0325  30DD               	movlw	221
   980  0326  00CB               	movwf	??_main
   981  0327                     u1907:
   982  0327  0BCB               	decfsz	??_main,f
   983  0328  2B27               	goto	u1907
   984  0329  0BCC               	decfsz	??_main+1,f
   985  032A  2B27               	goto	u1907
   986  032B  2A06               	goto	l1704
   987  032C  120A  118A  280C   	ljmp	start
   988  032F                     __end_of_main:
   989                           
   990                           	psect	text1
   991  05CB                     __ptext1:	
   992 ;; *************** function _write_string *****************
   993 ;; Defined at:
   994 ;;		line 99 in file "LCD.c"
   995 ;; Parameters:    Size  Location     Type
   996 ;;  a               1    wreg     PTR unsigned char 
   997 ;;		 -> STR_1(13), 
   998 ;; Auto vars:     Size  Location     Type
   999 ;;  a               1    7[COMMON] PTR unsigned char 
  1000 ;;		 -> STR_1(13), 
  1001 ;;  i               2    5[COMMON] int 
  1002 ;; Return value:  Size  Location     Type
  1003 ;;                  1    wreg      void 
  1004 ;; Registers used:
  1005 ;;		wreg, fsr0l, fsr0h, status,2, status,0, pclath, cstack
  1006 ;; Tracked objects:
  1007 ;;		On entry : 0/0
  1008 ;;		On exit  : 0/0
  1009 ;;		Unchanged: 0/0
  1010 ;; Data sizes:     COMMON   BANK0   BANK1   BANK3   BANK2
  1011 ;;      Params:         0       0       0       0       0
  1012 ;;      Locals:         3       0       0       0       0
  1013 ;;      Temps:          0       0       0       0       0
  1014 ;;      Totals:         3       0       0       0       0
  1015 ;;Total ram usage:        3 bytes
  1016 ;; Hardware stack levels used:    1
  1017 ;; Hardware stack levels required when called:    3
  1018 ;; This function calls:
  1019 ;;		_write_char
  1020 ;; This function is called by:
  1021 ;;		_main
  1022 ;; This function uses a non-reentrant model
  1023 ;;
  1024                           
  1025                           
  1026                           ;psect for function _write_string
  1027  05CB                     _write_string:
  1028                           
  1029                           ;incstack = 0
  1030                           ; Regs used in _write_string: [wreg-fsr0h+status,2+status,0+pclath+cstack]
  1031                           ;write_string@a stored from wreg
  1032  05CB  00F7               	movwf	write_string@a
  1033  05CC                     l1310:
  1034                           
  1035                           ;LCD.c: 100:     int i;;LCD.c: 101:  for(i=0;a[i]!='\0';i++){
  1036  05CC  01F5               	clrf	write_string@i
  1037  05CD  01F6               	clrf	write_string@i+1
  1038  05CE  2DE2               	goto	l1316
  1039  05CF                     l1312:
  1040                           
  1041                           ;LCD.c: 102:        write_char(a[i]);
  1042  05CF  0875               	movf	write_string@i,w
  1043  05D0  0777               	addwf	write_string@a,w
  1044  05D1  0084               	movwf	4
  1045  05D2  120A  118A  2674  120A  118A  	fcall	stringdir
  1046  05D7  120A  118A  2658  120A  118A  	fcall	_write_char
  1047  05DC                     l1314:
  1048                           
  1049                           ;LCD.c: 103:     }
  1050  05DC  3001               	movlw	1
  1051  05DD  07F5               	addwf	write_string@i,f
  1052  05DE  1803               	skipnc
  1053  05DF  0AF6               	incf	write_string@i+1,f
  1054  05E0  3000               	movlw	0
  1055  05E1  07F6               	addwf	write_string@i+1,f
  1056  05E2                     l1316:
  1057  05E2  0875               	movf	write_string@i,w
  1058  05E3  0777               	addwf	write_string@a,w
  1059  05E4  0084               	movwf	4
  1060  05E5  120A  118A  2674  120A  118A  	fcall	stringdir
  1061  05EA  3A00               	xorlw	0
  1062  05EB  1D03               	skipz
  1063  05EC  2DEE               	goto	u981
  1064  05ED  2DEF               	goto	u980
  1065  05EE                     u981:
  1066  05EE  2DCF               	goto	l1312
  1067  05EF                     u980:
  1068  05EF                     l146:
  1069  05EF  0008               	return
  1070  05F0                     __end_of_write_string:
  1071                           
  1072                           	psect	text2
  1073  0658                     __ptext2:	
  1074 ;; *************** function _write_char *****************
  1075 ;; Defined at:
  1076 ;;		line 89 in file "LCD.c"
  1077 ;; Parameters:    Size  Location     Type
  1078 ;;  a               1    wreg     unsigned char 
  1079 ;; Auto vars:     Size  Location     Type
  1080 ;;  a               1    4[COMMON] unsigned char 
  1081 ;; Return value:  Size  Location     Type
  1082 ;;                  1    wreg      void 
  1083 ;; Registers used:
  1084 ;;		wreg, status,2, status,0, pclath, cstack
  1085 ;; Tracked objects:
  1086 ;;		On entry : 0/0
  1087 ;;		On exit  : 0/0
  1088 ;;		Unchanged: 0/0
  1089 ;; Data sizes:     COMMON   BANK0   BANK1   BANK3   BANK2
  1090 ;;      Params:         0       0       0       0       0
  1091 ;;      Locals:         1       0       0       0       0
  1092 ;;      Temps:          1       0       0       0       0
  1093 ;;      Totals:         2       0       0       0       0
  1094 ;;Total ram usage:        2 bytes
  1095 ;; Hardware stack levels used:    1
  1096 ;; Hardware stack levels required when called:    2
  1097 ;; This function calls:
  1098 ;;		_pin
  1099 ;; This function is called by:
  1100 ;;		_main
  1101 ;;		_write_string
  1102 ;; This function uses a non-reentrant model
  1103 ;;
  1104                           
  1105                           
  1106                           ;psect for function _write_char
  1107  0658                     _write_char:
  1108                           
  1109                           ;incstack = 0
  1110                           ; Regs used in _write_char: [wreg+status,2+status,0+pclath+cstack]
  1111                           ;write_char@a stored from wreg
  1112  0658  00F4               	movwf	write_char@a
  1113  0659                     l1220:
  1114                           
  1115                           ;LCD.c: 90:     RE0 = 1;
  1116  0659  1283               	bcf	3,5	;RP0=0, select bank0
  1117  065A  1303               	bcf	3,6	;RP1=0, select bank0
  1118  065B  1409               	bsf	9,0	;volatile
  1119  065C                     l1222:
  1120                           
  1121                           ;LCD.c: 91:     pin(a);
  1122  065C  0874               	movf	write_char@a,w
  1123  065D  120A  118A  258D  120A  118A  	fcall	_pin
  1124  0662                     l1224:
  1125                           
  1126                           ;LCD.c: 92:     RE1 = 1;
  1127  0662  1283               	bcf	3,5	;RP0=0, select bank0
  1128  0663  1303               	bcf	3,6	;RP1=0, select bank0
  1129  0664  1489               	bsf	9,1	;volatile
  1130  0665                     l1226:
  1131                           
  1132                           ;LCD.c: 93:     _delay((unsigned long)((5)*(4000000/4000000.0)));
  1133  0665  2E66               	nop2	;2 cycle nop
  1134  0666  2E67               	nop2	;2 cycle nop
  1135  0667  0000               	nop
  1136  0668                     l1228:
  1137                           
  1138                           ;LCD.c: 94:     RE1 = 0;
  1139  0668  1283               	bcf	3,5	;RP0=0, select bank0
  1140  0669  1303               	bcf	3,6	;RP1=0, select bank0
  1141  066A  1089               	bcf	9,1	;volatile
  1142  066B                     l1230:
  1143                           
  1144                           ;LCD.c: 95:     _delay((unsigned long)((5)*(4000000/4000000.0)));
  1145  066B  2E6C               	nop2	;2 cycle nop
  1146  066C  2E6D               	nop2	;2 cycle nop
  1147  066D  0000               	nop
  1148  066E                     l1232:
  1149                           
  1150                           ;LCD.c: 96:     _delay((unsigned long)((50)*(4000000/4000000.0)));
  1151  066E  3010               	movlw	16
  1152  066F  00F3               	movwf	??_write_char
  1153  0670                     u1917:
  1154  0670  0BF3               	decfsz	??_write_char,f
  1155  0671  2E70               	goto	u1917
  1156  0672  0000               	nop
  1157  0673                     l140:
  1158  0673  0008               	return
  1159  0674                     __end_of_write_char:
  1160                           
  1161                           	psect	text3
  1162  05F0                     __ptext3:	
  1163 ;; *************** function _setup *****************
  1164 ;; Defined at:
  1165 ;;		line 105 in file "ultraso.c"
  1166 ;; Parameters:    Size  Location     Type
  1167 ;;		None
  1168 ;; Auto vars:     Size  Location     Type
  1169 ;;		None
  1170 ;; Return value:  Size  Location     Type
  1171 ;;                  1    wreg      void 
  1172 ;; Registers used:
  1173 ;;		wreg, status,2
  1174 ;; Tracked objects:
  1175 ;;		On entry : 0/0
  1176 ;;		On exit  : 0/0
  1177 ;;		Unchanged: 0/0
  1178 ;; Data sizes:     COMMON   BANK0   BANK1   BANK3   BANK2
  1179 ;;      Params:         0       0       0       0       0
  1180 ;;      Locals:         0       0       0       0       0
  1181 ;;      Temps:          0       0       0       0       0
  1182 ;;      Totals:         0       0       0       0       0
  1183 ;;Total ram usage:        0 bytes
  1184 ;; Hardware stack levels used:    1
  1185 ;; Hardware stack levels required when called:    1
  1186 ;; This function calls:
  1187 ;;		Nothing
  1188 ;; This function is called by:
  1189 ;;		_main
  1190 ;; This function uses a non-reentrant model
  1191 ;;
  1192                           
  1193                           
  1194                           ;psect for function _setup
  1195  05F0                     _setup:
  1196  05F0                     l1248:	
  1197                           ;incstack = 0
  1198                           ; Regs used in _setup: [wreg+status,2]
  1199                           
  1200                           
  1201                           ;ultraso.c: 106:     ANSEL = 0;
  1202  05F0  1683               	bsf	3,5	;RP0=1, select bank3
  1203  05F1  1703               	bsf	3,6	;RP1=1, select bank3
  1204  05F2  0188               	clrf	8	;volatile
  1205                           
  1206                           ;ultraso.c: 107:     ANSELH = 0;
  1207  05F3  0189               	clrf	9	;volatile
  1208  05F4                     l1250:
  1209                           
  1210                           ;ultraso.c: 109:     TRISBbits.TRISB0 = 0;
  1211  05F4  1683               	bsf	3,5	;RP0=1, select bank1
  1212  05F5  1303               	bcf	3,6	;RP1=0, select bank1
  1213  05F6  1006               	bcf	6,0	;volatile
  1214  05F7                     l1252:
  1215                           
  1216                           ;ultraso.c: 110:     TRISBbits.TRISB4 = 0;
  1217  05F7  1206               	bcf	6,4	;volatile
  1218                           
  1219                           ;ultraso.c: 111:     TRISD = 0;
  1220  05F8  0188               	clrf	8	;volatile
  1221                           
  1222                           ;ultraso.c: 112:     TRISE = 0;
  1223  05F9  0189               	clrf	9	;volatile
  1224                           
  1225                           ;ultraso.c: 113:     PORTA = 0;
  1226  05FA  1283               	bcf	3,5	;RP0=0, select bank0
  1227  05FB  1303               	bcf	3,6	;RP1=0, select bank0
  1228  05FC  0185               	clrf	5	;volatile
  1229                           
  1230                           ;ultraso.c: 114:     PORTB = 0;
  1231  05FD  0186               	clrf	6	;volatile
  1232                           
  1233                           ;ultraso.c: 115:     PORTC = 0;
  1234  05FE  0187               	clrf	7	;volatile
  1235                           
  1236                           ;ultraso.c: 116:     PORTD = 0;
  1237  05FF  0188               	clrf	8	;volatile
  1238                           
  1239                           ;ultraso.c: 117:     PORTE = 0;
  1240  0600  0189               	clrf	9	;volatile
  1241  0601                     l1254:
  1242                           
  1243                           ;ultraso.c: 118:     INTCONbits.PEIE = 1;
  1244  0601  170B               	bsf	11,6	;volatile
  1245  0602                     l1256:
  1246                           
  1247                           ;ultraso.c: 119:     PIE1bits.RCIE = 1;
  1248  0602  1683               	bsf	3,5	;RP0=1, select bank1
  1249  0603  1303               	bcf	3,6	;RP1=0, select bank1
  1250  0604  168C               	bsf	12,5	;volatile
  1251  0605                     l1258:
  1252                           
  1253                           ;ultraso.c: 120:     PIR1bits.RCIF = 0;
  1254  0605  1283               	bcf	3,5	;RP0=0, select bank0
  1255  0606  1303               	bcf	3,6	;RP1=0, select bank0
  1256  0607  128C               	bcf	12,5	;volatile
  1257  0608                     l1260:
  1258                           
  1259                           ;ultraso.c: 121:     INTCONbits.GIE = 1;
  1260  0608  178B               	bsf	11,7	;volatile
  1261  0609                     l1262:
  1262                           
  1263                           ;ultraso.c: 123:     OSCCONbits.IRCF2 = 1;
  1264  0609  1683               	bsf	3,5	;RP0=1, select bank1
  1265  060A  1303               	bcf	3,6	;RP1=0, select bank1
  1266  060B  170F               	bsf	15,6	;volatile
  1267  060C                     l1264:
  1268                           
  1269                           ;ultraso.c: 124:     OSCCONbits.IRCF1 = 1;
  1270  060C  168F               	bsf	15,5	;volatile
  1271  060D                     l1266:
  1272                           
  1273                           ;ultraso.c: 125:     OSCCONbits.IRCF0 = 1;
  1274  060D  160F               	bsf	15,4	;volatile
  1275  060E                     l1268:
  1276                           
  1277                           ;ultraso.c: 126:     OSCCONbits.SCS = 1;
  1278  060E  140F               	bsf	15,0	;volatile
  1279  060F                     l1270:
  1280                           
  1281                           ;ultraso.c: 128:     T1CON = 0x10;
  1282  060F  3010               	movlw	16
  1283  0610  1283               	bcf	3,5	;RP0=0, select bank0
  1284  0611  1303               	bcf	3,6	;RP1=0, select bank0
  1285  0612  0090               	movwf	16	;volatile
  1286  0613                     l81:
  1287  0613  0008               	return
  1288  0614                     __end_of_setup:
  1289                           
  1290                           	psect	text4
  1291  0614                     __ptext4:	
  1292 ;; *************** function _cursor *****************
  1293 ;; Defined at:
  1294 ;;		line 57 in file "LCD.c"
  1295 ;; Parameters:    Size  Location     Type
  1296 ;;  a               1    wreg     unsigned char 
  1297 ;;  b               1    6[COMMON] unsigned char 
  1298 ;; Auto vars:     Size  Location     Type
  1299 ;;  a               1    8[COMMON] unsigned char 
  1300 ;;  x               1    9[COMMON] unsigned char 
  1301 ;; Return value:  Size  Location     Type
  1302 ;;                  1    wreg      void 
  1303 ;; Registers used:
  1304 ;;		wreg, status,2, status,0, pclath, cstack
  1305 ;; Tracked objects:
  1306 ;;		On entry : 0/0
  1307 ;;		On exit  : 0/0
  1308 ;;		Unchanged: 0/0
  1309 ;; Data sizes:     COMMON   BANK0   BANK1   BANK3   BANK2
  1310 ;;      Params:         1       0       0       0       0
  1311 ;;      Locals:         2       0       0       0       0
  1312 ;;      Temps:          1       0       0       0       0
  1313 ;;      Totals:         4       0       0       0       0
  1314 ;;Total ram usage:        4 bytes
  1315 ;; Hardware stack levels used:    1
  1316 ;; Hardware stack levels required when called:    3
  1317 ;; This function calls:
  1318 ;;		_CMDs
  1319 ;; This function is called by:
  1320 ;;		_main
  1321 ;; This function uses a non-reentrant model
  1322 ;;
  1323                           
  1324                           
  1325                           ;psect for function _cursor
  1326  0614                     _cursor:
  1327                           
  1328                           ;incstack = 0
  1329                           ; Regs used in _cursor: [wreg+status,2+status,0+pclath+cstack]
  1330                           ;cursor@a stored from wreg
  1331  0614  00F8               	movwf	cursor@a
  1332  0615                     l1298:
  1333                           
  1334                           ;LCD.c: 58:     uint8_t x;;LCD.c: 59:     if (a == 1){
  1335  0615  0378               	decf	cursor@a,w
  1336  0616  1D03               	btfss	3,2
  1337  0617  2E19               	goto	u961
  1338  0618  2E1A               	goto	u960
  1339  0619                     u961:
  1340  0619  2E26               	goto	l1304
  1341  061A                     u960:
  1342  061A                     l1300:
  1343                           
  1344                           ;LCD.c: 60:        x = 0x80 + b;
  1345  061A  0876               	movf	cursor@b,w
  1346  061B  3E80               	addlw	128
  1347  061C  00F7               	movwf	??_cursor
  1348  061D  0877               	movf	??_cursor,w
  1349  061E  00F9               	movwf	cursor@x
  1350  061F                     l1302:
  1351                           
  1352                           ;LCD.c: 61:        CMDs(x);
  1353  061F  0879               	movf	cursor@x,w
  1354  0620  120A  118A  2638  120A  118A  	fcall	_CMDs
  1355                           
  1356                           ;LCD.c: 62:     }
  1357  0625  2E37               	goto	l134
  1358  0626                     l1304:
  1359  0626  3002               	movlw	2
  1360  0627  0678               	xorwf	cursor@a,w
  1361  0628  1D03               	btfss	3,2
  1362  0629  2E2B               	goto	u971
  1363  062A  2E2C               	goto	u970
  1364  062B                     u971:
  1365  062B  2E37               	goto	l134
  1366  062C                     u970:
  1367  062C                     l1306:
  1368                           
  1369                           ;LCD.c: 64:         x = 0xC0 + b;
  1370  062C  0876               	movf	cursor@b,w
  1371  062D  3EC0               	addlw	192
  1372  062E  00F7               	movwf	??_cursor
  1373  062F  0877               	movf	??_cursor,w
  1374  0630  00F9               	movwf	cursor@x
  1375  0631                     l1308:
  1376                           
  1377                           ;LCD.c: 65:         CMDs(x);
  1378  0631  0879               	movf	cursor@x,w
  1379  0632  120A  118A  2638  120A  118A  	fcall	_CMDs
  1380  0637                     l134:
  1381  0637  0008               	return
  1382  0638                     __end_of_cursor:
  1383                           
  1384                           	psect	text5
  1385  04CE                     __ptext5:	
  1386 ;; *************** function _configLCD *****************
  1387 ;; Defined at:
  1388 ;;		line 69 in file "LCD.c"
  1389 ;; Parameters:    Size  Location     Type
  1390 ;;		None
  1391 ;; Auto vars:     Size  Location     Type
  1392 ;;		None
  1393 ;; Return value:  Size  Location     Type
  1394 ;;                  1    wreg      void 
  1395 ;; Registers used:
  1396 ;;		wreg, status,2, status,0, pclath, cstack
  1397 ;; Tracked objects:
  1398 ;;		On entry : 0/0
  1399 ;;		On exit  : 0/0
  1400 ;;		Unchanged: 0/0
  1401 ;; Data sizes:     COMMON   BANK0   BANK1   BANK3   BANK2
  1402 ;;      Params:         0       0       0       0       0
  1403 ;;      Locals:         0       0       0       0       0
  1404 ;;      Temps:          2       0       0       0       0
  1405 ;;      Totals:         2       0       0       0       0
  1406 ;;Total ram usage:        2 bytes
  1407 ;; Hardware stack levels used:    1
  1408 ;; Hardware stack levels required when called:    3
  1409 ;; This function calls:
  1410 ;;		_CMDs
  1411 ;; This function is called by:
  1412 ;;		_main
  1413 ;; This function uses a non-reentrant model
  1414 ;;
  1415                           
  1416                           
  1417                           ;psect for function _configLCD
  1418  04CE                     _configLCD:
  1419  04CE                     l1272:	
  1420                           ;incstack = 0
  1421                           ; Regs used in _configLCD: [wreg+status,2+status,0+pclath+cstack]
  1422                           
  1423                           
  1424                           ;LCD.c: 70:     _delay((unsigned long)((20)*(4000000/4000.0)));
  1425  04CE  301A               	movlw	26
  1426  04CF  00F7               	movwf	??_configLCD+1
  1427  04D0  30F8               	movlw	248
  1428  04D1  00F6               	movwf	??_configLCD
  1429  04D2                     u1927:
  1430  04D2  0BF6               	decfsz	??_configLCD,f
  1431  04D3  2CD2               	goto	u1927
  1432  04D4  0BF7               	decfsz	??_configLCD+1,f
  1433  04D5  2CD2               	goto	u1927
  1434  04D6  0000               	nop
  1435  04D7                     l1274:
  1436                           
  1437                           ;LCD.c: 71:     CMDs (0x30);
  1438  04D7  3030               	movlw	48
  1439  04D8  120A  118A  2638  120A  118A  	fcall	_CMDs
  1440  04DD                     l1276:
  1441                           
  1442                           ;LCD.c: 72:     _delay((unsigned long)((5)*(4000000/4000.0)));
  1443  04DD  3007               	movlw	7
  1444  04DE  00F7               	movwf	??_configLCD+1
  1445  04DF  307D               	movlw	125
  1446  04E0  00F6               	movwf	??_configLCD
  1447  04E1                     u1937:
  1448  04E1  0BF6               	decfsz	??_configLCD,f
  1449  04E2  2CE1               	goto	u1937
  1450  04E3  0BF7               	decfsz	??_configLCD+1,f
  1451  04E4  2CE1               	goto	u1937
  1452                           
  1453                           ;LCD.c: 73:     CMDs (0x30);
  1454  04E5  3030               	movlw	48
  1455  04E6  120A  118A  2638  120A  118A  	fcall	_CMDs
  1456  04EB                     l1278:
  1457                           
  1458                           ;LCD.c: 74:     _delay((unsigned long)((100)*(4000000/4000000.0)));
  1459  04EB  3021               	movlw	33
  1460  04EC  00F6               	movwf	??_configLCD
  1461  04ED                     u1947:
  1462  04ED  0BF6               	decfsz	??_configLCD,f
  1463  04EE  2CED               	goto	u1947
  1464  04EF                     l1280:
  1465                           
  1466                           ;LCD.c: 75:     CMDs (0x30);
  1467  04EF  3030               	movlw	48
  1468  04F0  120A  118A  2638  120A  118A  	fcall	_CMDs
  1469                           
  1470                           ;LCD.c: 76:     _delay((unsigned long)((100)*(4000000/4000000.0)));
  1471  04F5  3021               	movlw	33
  1472  04F6  00F6               	movwf	??_configLCD
  1473  04F7                     u1957:
  1474  04F7  0BF6               	decfsz	??_configLCD,f
  1475  04F8  2CF7               	goto	u1957
  1476  04F9                     l1282:
  1477                           
  1478                           ;LCD.c: 77:     CMDs (0x38);
  1479  04F9  3038               	movlw	56
  1480  04FA  120A  118A  2638  120A  118A  	fcall	_CMDs
  1481  04FF                     l1284:
  1482                           
  1483                           ;LCD.c: 78:     _delay((unsigned long)((60)*(4000000/4000000.0)));
  1484  04FF  3013               	movlw	19
  1485  0500  00F6               	movwf	??_configLCD
  1486  0501                     u1967:
  1487  0501  0BF6               	decfsz	??_configLCD,f
  1488  0502  2D01               	goto	u1967
  1489  0503  2D04               	nop2
  1490                           
  1491                           ;LCD.c: 79:     CMDs (0x08);
  1492  0504  3008               	movlw	8
  1493  0505  120A  118A  2638  120A  118A  	fcall	_CMDs
  1494  050A                     l1286:
  1495                           
  1496                           ;LCD.c: 80:     _delay((unsigned long)((60)*(4000000/4000000.0)));
  1497  050A  3013               	movlw	19
  1498  050B  00F6               	movwf	??_configLCD
  1499  050C                     u1977:
  1500  050C  0BF6               	decfsz	??_configLCD,f
  1501  050D  2D0C               	goto	u1977
  1502  050E  2D0F               	nop2
  1503  050F                     l1288:
  1504                           
  1505                           ;LCD.c: 81:     CMDs (0x01);
  1506  050F  3001               	movlw	1
  1507  0510  120A  118A  2638  120A  118A  	fcall	_CMDs
  1508                           
  1509                           ;LCD.c: 82:     _delay((unsigned long)((5)*(4000000/4000.0)));
  1510  0515  3007               	movlw	7
  1511  0516  00F7               	movwf	??_configLCD+1
  1512  0517  307D               	movlw	125
  1513  0518  00F6               	movwf	??_configLCD
  1514  0519                     u1987:
  1515  0519  0BF6               	decfsz	??_configLCD,f
  1516  051A  2D19               	goto	u1987
  1517  051B  0BF7               	decfsz	??_configLCD+1,f
  1518  051C  2D19               	goto	u1987
  1519  051D                     l1290:
  1520                           
  1521                           ;LCD.c: 83:     CMDs (0x06);
  1522  051D  3006               	movlw	6
  1523  051E  120A  118A  2638  120A  118A  	fcall	_CMDs
  1524  0523                     l1292:
  1525                           
  1526                           ;LCD.c: 84:     _delay((unsigned long)((60)*(4000000/4000000.0)));
  1527  0523  3013               	movlw	19
  1528  0524  00F6               	movwf	??_configLCD
  1529  0525                     u1997:
  1530  0525  0BF6               	decfsz	??_configLCD,f
  1531  0526  2D25               	goto	u1997
  1532  0527  2D28               	nop2
  1533                           
  1534                           ;LCD.c: 85:     CMDs (0x0C);
  1535  0528  300C               	movlw	12
  1536  0529  120A  118A  2638  120A  118A  	fcall	_CMDs
  1537  052E                     l1294:
  1538                           
  1539                           ;LCD.c: 86:     _delay((unsigned long)((60)*(4000000/4000000.0)));
  1540  052E  3013               	movlw	19
  1541  052F  00F6               	movwf	??_configLCD
  1542  0530                     u2007:
  1543  0530  0BF6               	decfsz	??_configLCD,f
  1544  0531  2D30               	goto	u2007
  1545  0532  2D33               	nop2
  1546  0533                     l137:
  1547  0533  0008               	return
  1548  0534                     __end_of_configLCD:
  1549                           
  1550                           	psect	text6
  1551  0687                     __ptext6:	
  1552 ;; *************** function _clear_LCD *****************
  1553 ;; Defined at:
  1554 ;;		line 52 in file "LCD.c"
  1555 ;; Parameters:    Size  Location     Type
  1556 ;;		None
  1557 ;; Auto vars:     Size  Location     Type
  1558 ;;		None
  1559 ;; Return value:  Size  Location     Type
  1560 ;;                  1    wreg      void 
  1561 ;; Registers used:
  1562 ;;		wreg, status,2, status,0, pclath, cstack
  1563 ;; Tracked objects:
  1564 ;;		On entry : 0/0
  1565 ;;		On exit  : 0/0
  1566 ;;		Unchanged: 0/0
  1567 ;; Data sizes:     COMMON   BANK0   BANK1   BANK3   BANK2
  1568 ;;      Params:         0       0       0       0       0
  1569 ;;      Locals:         0       0       0       0       0
  1570 ;;      Temps:          0       0       0       0       0
  1571 ;;      Totals:         0       0       0       0       0
  1572 ;;Total ram usage:        0 bytes
  1573 ;; Hardware stack levels used:    1
  1574 ;; Hardware stack levels required when called:    3
  1575 ;; This function calls:
  1576 ;;		_CMDs
  1577 ;; This function is called by:
  1578 ;;		_main
  1579 ;; This function uses a non-reentrant model
  1580 ;;
  1581                           
  1582                           
  1583                           ;psect for function _clear_LCD
  1584  0687                     _clear_LCD:
  1585  0687                     l1296:	
  1586                           ;incstack = 0
  1587                           ; Regs used in _clear_LCD: [wreg+status,2+status,0+pclath+cstack]
  1588                           
  1589                           
  1590                           ;LCD.c: 53:     CMDs(0);
  1591  0687  3000               	movlw	0
  1592  0688  120A  118A  2638  120A  118A  	fcall	_CMDs
  1593                           
  1594                           ;LCD.c: 54:     CMDs(1);
  1595  068D  3001               	movlw	1
  1596  068E  120A  118A  2638  120A  118A  	fcall	_CMDs
  1597  0693                     l128:
  1598  0693  0008               	return
  1599  0694                     __end_of_clear_LCD:
  1600                           
  1601                           	psect	text7
  1602  0638                     __ptext7:	
  1603 ;; *************** function _CMDs *****************
  1604 ;; Defined at:
  1605 ;;		line 42 in file "LCD.c"
  1606 ;; Parameters:    Size  Location     Type
  1607 ;;  a               1    wreg     unsigned char 
  1608 ;; Auto vars:     Size  Location     Type
  1609 ;;  a               1    5[COMMON] unsigned char 
  1610 ;; Return value:  Size  Location     Type
  1611 ;;                  1    wreg      void 
  1612 ;; Registers used:
  1613 ;;		wreg, status,2, status,0, pclath, cstack
  1614 ;; Tracked objects:
  1615 ;;		On entry : 0/0
  1616 ;;		On exit  : 0/0
  1617 ;;		Unchanged: 0/0
  1618 ;; Data sizes:     COMMON   BANK0   BANK1   BANK3   BANK2
  1619 ;;      Params:         0       0       0       0       0
  1620 ;;      Locals:         1       0       0       0       0
  1621 ;;      Temps:          2       0       0       0       0
  1622 ;;      Totals:         3       0       0       0       0
  1623 ;;Total ram usage:        3 bytes
  1624 ;; Hardware stack levels used:    1
  1625 ;; Hardware stack levels required when called:    2
  1626 ;; This function calls:
  1627 ;;		_pin
  1628 ;; This function is called by:
  1629 ;;		_clear_LCD
  1630 ;;		_cursor
  1631 ;;		_configLCD
  1632 ;; This function uses a non-reentrant model
  1633 ;;
  1634                           
  1635                           
  1636                           ;psect for function _CMDs
  1637  0638                     _CMDs:
  1638                           
  1639                           ;incstack = 0
  1640                           ; Regs used in _CMDs: [wreg+status,2+status,0+pclath+cstack]
  1641                           ;CMDs@a stored from wreg
  1642  0638  00F5               	movwf	CMDs@a
  1643  0639                     l1234:
  1644                           
  1645                           ;LCD.c: 43:     RE0 = 0;
  1646  0639  1283               	bcf	3,5	;RP0=0, select bank0
  1647  063A  1303               	bcf	3,6	;RP1=0, select bank0
  1648  063B  1009               	bcf	9,0	;volatile
  1649  063C                     l1236:
  1650                           
  1651                           ;LCD.c: 44:     pin(a);
  1652  063C  0875               	movf	CMDs@a,w
  1653  063D  120A  118A  258D  120A  118A  	fcall	_pin
  1654  0642                     l1238:
  1655                           
  1656                           ;LCD.c: 45:     RE1 = 1;
  1657  0642  1283               	bcf	3,5	;RP0=0, select bank0
  1658  0643  1303               	bcf	3,6	;RP1=0, select bank0
  1659  0644  1489               	bsf	9,1	;volatile
  1660  0645                     l1240:
  1661                           
  1662                           ;LCD.c: 46:     _delay((unsigned long)((5)*(4000000/4000000.0)));
  1663  0645  2E46               	nop2	;2 cycle nop
  1664  0646  2E47               	nop2	;2 cycle nop
  1665  0647  0000               	nop
  1666  0648                     l1242:
  1667                           
  1668                           ;LCD.c: 47:     RE1 = 0;
  1669  0648  1283               	bcf	3,5	;RP0=0, select bank0
  1670  0649  1303               	bcf	3,6	;RP1=0, select bank0
  1671  064A  1089               	bcf	9,1	;volatile
  1672  064B                     l1244:
  1673                           
  1674                           ;LCD.c: 48:     _delay((unsigned long)((5)*(4000000/4000000.0)));
  1675  064B  2E4C               	nop2	;2 cycle nop
  1676  064C  2E4D               	nop2	;2 cycle nop
  1677  064D  0000               	nop
  1678  064E                     l1246:
  1679                           
  1680                           ;LCD.c: 49:     _delay((unsigned long)((2)*(4000000/4000.0)));
  1681  064E  3003               	movlw	3
  1682  064F  00F4               	movwf	??_CMDs+1
  1683  0650  3097               	movlw	151
  1684  0651  00F3               	movwf	??_CMDs
  1685  0652                     u2017:
  1686  0652  0BF3               	decfsz	??_CMDs,f
  1687  0653  2E52               	goto	u2017
  1688  0654  0BF4               	decfsz	??_CMDs+1,f
  1689  0655  2E52               	goto	u2017
  1690  0656  2E57               	nop2
  1691  0657                     l125:
  1692  0657  0008               	return
  1693  0658                     __end_of_CMDs:
  1694                           
  1695                           	psect	text8
  1696  058D                     __ptext8:	
  1697 ;; *************** function _pin *****************
  1698 ;; Defined at:
  1699 ;;		line 7 in file "LCD.c"
  1700 ;; Parameters:    Size  Location     Type
  1701 ;;  a               1    wreg     unsigned char 
  1702 ;; Auto vars:     Size  Location     Type
  1703 ;;  a               1    2[COMMON] unsigned char 
  1704 ;; Return value:  Size  Location     Type
  1705 ;;                  1    wreg      void 
  1706 ;; Registers used:
  1707 ;;		wreg
  1708 ;; Tracked objects:
  1709 ;;		On entry : 0/0
  1710 ;;		On exit  : 0/0
  1711 ;;		Unchanged: 0/0
  1712 ;; Data sizes:     COMMON   BANK0   BANK1   BANK3   BANK2
  1713 ;;      Params:         0       0       0       0       0
  1714 ;;      Locals:         1       0       0       0       0
  1715 ;;      Temps:          0       0       0       0       0
  1716 ;;      Totals:         1       0       0       0       0
  1717 ;;Total ram usage:        1 bytes
  1718 ;; Hardware stack levels used:    1
  1719 ;; Hardware stack levels required when called:    1
  1720 ;; This function calls:
  1721 ;;		Nothing
  1722 ;; This function is called by:
  1723 ;;		_CMDs
  1724 ;;		_write_char
  1725 ;; This function uses a non-reentrant model
  1726 ;;
  1727                           
  1728                           
  1729                           ;psect for function _pin
  1730  058D                     _pin:
  1731                           
  1732                           ;incstack = 0
  1733                           ; Regs used in _pin: [wreg]
  1734                           ;pin@a stored from wreg
  1735  058D  00F2               	movwf	pin@a
  1736  058E                     l1202:
  1737                           
  1738                           ;LCD.c: 8:     if(a & 1){
  1739  058E  1C72               	btfss	pin@a,0
  1740  058F  2D91               	goto	u881
  1741  0590  2D92               	goto	u880
  1742  0591                     u881:
  1743  0591  2D96               	goto	l106
  1744  0592                     u880:
  1745  0592                     l1204:
  1746                           
  1747                           ;LCD.c: 9:         RD0=1;}
  1748  0592  1283               	bcf	3,5	;RP0=0, select bank0
  1749  0593  1303               	bcf	3,6	;RP1=0, select bank0
  1750  0594  1408               	bsf	8,0	;volatile
  1751  0595  2D99               	goto	l107
  1752  0596                     l106:	
  1753                           ;LCD.c: 10:     else{
  1754                           
  1755                           
  1756                           ;LCD.c: 11:         RD0=0;}
  1757  0596  1283               	bcf	3,5	;RP0=0, select bank0
  1758  0597  1303               	bcf	3,6	;RP1=0, select bank0
  1759  0598  1008               	bcf	8,0	;volatile
  1760  0599                     l107:
  1761                           
  1762                           ;LCD.c: 12:     if(a & 2){
  1763  0599  1CF2               	btfss	pin@a,1
  1764  059A  2D9C               	goto	u891
  1765  059B  2D9D               	goto	u890
  1766  059C                     u891:
  1767  059C  2D9F               	goto	l108
  1768  059D                     u890:
  1769  059D                     l1206:
  1770                           
  1771                           ;LCD.c: 13:         RD1=1;}
  1772  059D  1488               	bsf	8,1	;volatile
  1773  059E  2DA0               	goto	l109
  1774  059F                     l108:	
  1775                           ;LCD.c: 14:     else{
  1776                           
  1777                           
  1778                           ;LCD.c: 15:         RD1=0;}
  1779  059F  1088               	bcf	8,1	;volatile
  1780  05A0                     l109:
  1781                           
  1782                           ;LCD.c: 16:     if(a & 4){
  1783  05A0  1D72               	btfss	pin@a,2
  1784  05A1  2DA3               	goto	u901
  1785  05A2  2DA4               	goto	u900
  1786  05A3                     u901:
  1787  05A3  2DA6               	goto	l110
  1788  05A4                     u900:
  1789  05A4                     l1208:
  1790                           
  1791                           ;LCD.c: 17:         RD2=1;}
  1792  05A4  1508               	bsf	8,2	;volatile
  1793  05A5  2DA7               	goto	l111
  1794  05A6                     l110:	
  1795                           ;LCD.c: 18:     else{
  1796                           
  1797                           
  1798                           ;LCD.c: 19:         RD2=0;}
  1799  05A6  1108               	bcf	8,2	;volatile
  1800  05A7                     l111:
  1801                           
  1802                           ;LCD.c: 20:     if(a & 8){
  1803  05A7  1DF2               	btfss	pin@a,3
  1804  05A8  2DAA               	goto	u911
  1805  05A9  2DAB               	goto	u910
  1806  05AA                     u911:
  1807  05AA  2DAD               	goto	l112
  1808  05AB                     u910:
  1809  05AB                     l1210:
  1810                           
  1811                           ;LCD.c: 21:         RD3=1;}
  1812  05AB  1588               	bsf	8,3	;volatile
  1813  05AC  2DAE               	goto	l113
  1814  05AD                     l112:	
  1815                           ;LCD.c: 22:     else{
  1816                           
  1817                           
  1818                           ;LCD.c: 23:         RD3=0;}
  1819  05AD  1188               	bcf	8,3	;volatile
  1820  05AE                     l113:
  1821                           
  1822                           ;LCD.c: 24:     if(a & 16){
  1823  05AE  1E72               	btfss	pin@a,4
  1824  05AF  2DB1               	goto	u921
  1825  05B0  2DB2               	goto	u920
  1826  05B1                     u921:
  1827  05B1  2DB4               	goto	l114
  1828  05B2                     u920:
  1829  05B2                     l1212:
  1830                           
  1831                           ;LCD.c: 25:         RD4=1;}
  1832  05B2  1608               	bsf	8,4	;volatile
  1833  05B3  2DB5               	goto	l115
  1834  05B4                     l114:	
  1835                           ;LCD.c: 26:     else{
  1836                           
  1837                           
  1838                           ;LCD.c: 27:         RD4=0;}
  1839  05B4  1208               	bcf	8,4	;volatile
  1840  05B5                     l115:
  1841                           
  1842                           ;LCD.c: 28:     if(a & 32){
  1843  05B5  1EF2               	btfss	pin@a,5
  1844  05B6  2DB8               	goto	u931
  1845  05B7  2DB9               	goto	u930
  1846  05B8                     u931:
  1847  05B8  2DBB               	goto	l116
  1848  05B9                     u930:
  1849  05B9                     l1214:
  1850                           
  1851                           ;LCD.c: 29:         RD5=1;}
  1852  05B9  1688               	bsf	8,5	;volatile
  1853  05BA  2DBC               	goto	l117
  1854  05BB                     l116:	
  1855                           ;LCD.c: 30:     else{
  1856                           
  1857                           
  1858                           ;LCD.c: 31:         RD5=0;}
  1859  05BB  1288               	bcf	8,5	;volatile
  1860  05BC                     l117:
  1861                           
  1862                           ;LCD.c: 32:     if(a & 64){
  1863  05BC  1F72               	btfss	pin@a,6
  1864  05BD  2DBF               	goto	u941
  1865  05BE  2DC0               	goto	u940
  1866  05BF                     u941:
  1867  05BF  2DC2               	goto	l118
  1868  05C0                     u940:
  1869  05C0                     l1216:
  1870                           
  1871                           ;LCD.c: 33:         RD6=1;}
  1872  05C0  1708               	bsf	8,6	;volatile
  1873  05C1  2DC3               	goto	l119
  1874  05C2                     l118:	
  1875                           ;LCD.c: 34:     else{
  1876                           
  1877                           
  1878                           ;LCD.c: 35:         RD6=0;}
  1879  05C2  1308               	bcf	8,6	;volatile
  1880  05C3                     l119:
  1881                           
  1882                           ;LCD.c: 36:     if(a & 128){
  1883  05C3  1FF2               	btfss	pin@a,7
  1884  05C4  2DC6               	goto	u951
  1885  05C5  2DC7               	goto	u950
  1886  05C6                     u951:
  1887  05C6  2DC9               	goto	l120
  1888  05C7                     u950:
  1889  05C7                     l1218:
  1890                           
  1891                           ;LCD.c: 37:         RD7=1;}
  1892  05C7  1788               	bsf	8,7	;volatile
  1893  05C8  2DCA               	goto	l122
  1894  05C9                     l120:	
  1895                           ;LCD.c: 38:     else{
  1896                           
  1897                           
  1898                           ;LCD.c: 39:         RD7=0;}
  1899  05C9  1388               	bcf	8,7	;volatile
  1900  05CA                     l122:
  1901  05CA  0008               	return
  1902  05CB                     __end_of_pin:
  1903                           
  1904                           	psect	text9
  1905  032F                     __ptext9:	
  1906 ;; *************** function ___xxtofl *****************
  1907 ;; Defined at:
  1908 ;;		line 10 in file "C:\Program Files\Microchip\xc8\v2.31\pic\sources\c90\common\xxtofl.c"
  1909 ;; Parameters:    Size  Location     Type
  1910 ;;  sign            1    wreg     unsigned char 
  1911 ;;  val             4    2[COMMON] long 
  1912 ;; Auto vars:     Size  Location     Type
  1913 ;;  sign            1    0[BANK0 ] unsigned char 
  1914 ;;  arg             4    2[BANK0 ] unsigned long 
  1915 ;;  exp             1    1[BANK0 ] unsigned char 
  1916 ;; Return value:  Size  Location     Type
  1917 ;;                  4    2[COMMON] unsigned char 
  1918 ;; Registers used:
  1919 ;;		wreg, status,2, status,0
  1920 ;; Tracked objects:
  1921 ;;		On entry : 0/0
  1922 ;;		On exit  : 0/0
  1923 ;;		Unchanged: 0/0
  1924 ;; Data sizes:     COMMON   BANK0   BANK1   BANK3   BANK2
  1925 ;;      Params:         4       0       0       0       0
  1926 ;;      Locals:         0       6       0       0       0
  1927 ;;      Temps:          4       0       0       0       0
  1928 ;;      Totals:         8       6       0       0       0
  1929 ;;Total ram usage:       14 bytes
  1930 ;; Hardware stack levels used:    1
  1931 ;; Hardware stack levels required when called:    1
  1932 ;; This function calls:
  1933 ;;		Nothing
  1934 ;; This function is called by:
  1935 ;;		_main
  1936 ;; This function uses a non-reentrant model
  1937 ;;
  1938                           
  1939                           
  1940                           ;psect for function ___xxtofl
  1941  032F                     ___xxtofl:
  1942                           
  1943                           ;incstack = 0
  1944                           ; Regs used in ___xxtofl: [wreg+status,2+status,0]
  1945                           ;___xxtofl@sign stored from wreg
  1946  032F  1283               	bcf	3,5	;RP0=0, select bank0
  1947  0330  1303               	bcf	3,6	;RP1=0, select bank0
  1948  0331  00A0               	movwf	___xxtofl@sign
  1949  0332                     l1578:
  1950  0332  0820               	movf	___xxtofl@sign,w
  1951  0333  1903               	btfsc	3,2
  1952  0334  2B36               	goto	u1571
  1953  0335  2B37               	goto	u1570
  1954  0336                     u1571:
  1955  0336  2B4B               	goto	l1584
  1956  0337                     u1570:
  1957  0337                     l1580:
  1958  0337  1FF5               	btfss	___xxtofl@val+3,7
  1959  0338  2B3A               	goto	u1581
  1960  0339  2B3B               	goto	u1580
  1961  033A                     u1581:
  1962  033A  2B4B               	goto	l1584
  1963  033B                     u1580:
  1964  033B                     l1582:
  1965  033B  0972               	comf	___xxtofl@val,w
  1966  033C  00A2               	movwf	___xxtofl@arg
  1967  033D  0973               	comf	___xxtofl@val+1,w
  1968  033E  00A3               	movwf	___xxtofl@arg+1
  1969  033F  0974               	comf	___xxtofl@val+2,w
  1970  0340  00A4               	movwf	___xxtofl@arg+2
  1971  0341  0975               	comf	___xxtofl@val+3,w
  1972  0342  00A5               	movwf	___xxtofl@arg+3
  1973  0343  0AA2               	incf	___xxtofl@arg,f
  1974  0344  1903               	skipnz
  1975  0345  0AA3               	incf	___xxtofl@arg+1,f
  1976  0346  1903               	skipnz
  1977  0347  0AA4               	incf	___xxtofl@arg+2,f
  1978  0348  1903               	skipnz
  1979  0349  0AA5               	incf	___xxtofl@arg+3,f
  1980  034A  2B53               	goto	l665
  1981  034B                     l1584:
  1982  034B  0875               	movf	___xxtofl@val+3,w
  1983  034C  00A5               	movwf	___xxtofl@arg+3
  1984  034D  0874               	movf	___xxtofl@val+2,w
  1985  034E  00A4               	movwf	___xxtofl@arg+2
  1986  034F  0873               	movf	___xxtofl@val+1,w
  1987  0350  00A3               	movwf	___xxtofl@arg+1
  1988  0351  0872               	movf	___xxtofl@val,w
  1989  0352  00A2               	movwf	___xxtofl@arg
  1990  0353                     l665:
  1991  0353  0875               	movf	___xxtofl@val+3,w
  1992  0354  0474               	iorwf	___xxtofl@val+2,w
  1993  0355  0473               	iorwf	___xxtofl@val+1,w
  1994  0356  0472               	iorwf	___xxtofl@val,w
  1995  0357  1D03               	skipz
  1996  0358  2B5A               	goto	u1591
  1997  0359  2B5B               	goto	u1590
  1998  035A                     u1591:
  1999  035A  2B64               	goto	l1590
  2000  035B                     u1590:
  2001  035B                     l1586:
  2002  035B  3000               	movlw	0
  2003  035C  00F5               	movwf	?___xxtofl+3
  2004  035D  3000               	movlw	0
  2005  035E  00F4               	movwf	?___xxtofl+2
  2006  035F  3000               	movlw	0
  2007  0360  00F3               	movwf	?___xxtofl+1
  2008  0361  3000               	movlw	0
  2009  0362  00F2               	movwf	?___xxtofl
  2010  0363  2BEA               	goto	l667
  2011  0364                     l1590:
  2012  0364  3096               	movlw	150
  2013  0365  00F6               	movwf	??___xxtofl
  2014  0366  0876               	movf	??___xxtofl,w
  2015  0367  00A1               	movwf	___xxtofl@exp
  2016  0368  2B76               	goto	l1594
  2017  0369                     l1592:
  2018  0369  3001               	movlw	1
  2019  036A  00F6               	movwf	??___xxtofl
  2020  036B  0876               	movf	??___xxtofl,w
  2021  036C  07A1               	addwf	___xxtofl@exp,f
  2022  036D  3001               	movlw	1
  2023  036E                     u1605:
  2024  036E  1003               	clrc
  2025  036F  0CA5               	rrf	___xxtofl@arg+3,f
  2026  0370  0CA4               	rrf	___xxtofl@arg+2,f
  2027  0371  0CA3               	rrf	___xxtofl@arg+1,f
  2028  0372  0CA2               	rrf	___xxtofl@arg,f
  2029  0373  3EFF               	addlw	-1
  2030  0374  1D03               	skipz
  2031  0375  2B6E               	goto	u1605
  2032  0376                     l1594:
  2033  0376  30FE               	movlw	254
  2034  0377  0525               	andwf	___xxtofl@arg+3,w
  2035  0378  1D03               	btfss	3,2
  2036  0379  2B7B               	goto	u1611
  2037  037A  2B7C               	goto	u1610
  2038  037B                     u1611:
  2039  037B  2B69               	goto	l1592
  2040  037C                     u1610:
  2041  037C  2B98               	goto	l671
  2042  037D                     l1596:
  2043  037D  3001               	movlw	1
  2044  037E  00F6               	movwf	??___xxtofl
  2045  037F  0876               	movf	??___xxtofl,w
  2046  0380  07A1               	addwf	___xxtofl@exp,f
  2047  0381                     l1598:
  2048  0381  3001               	movlw	1
  2049  0382  07A2               	addwf	___xxtofl@arg,f
  2050  0383  3000               	movlw	0
  2051  0384  1803               	skipnc
  2052  0385  3001               	movlw	1
  2053  0386  07A3               	addwf	___xxtofl@arg+1,f
  2054  0387  3000               	movlw	0
  2055  0388  1803               	skipnc
  2056  0389  3001               	movlw	1
  2057  038A  07A4               	addwf	___xxtofl@arg+2,f
  2058  038B  3000               	movlw	0
  2059  038C  1803               	skipnc
  2060  038D  3001               	movlw	1
  2061  038E  07A5               	addwf	___xxtofl@arg+3,f
  2062  038F                     l1600:
  2063  038F  3001               	movlw	1
  2064  0390                     u1625:
  2065  0390  1003               	clrc
  2066  0391  0CA5               	rrf	___xxtofl@arg+3,f
  2067  0392  0CA4               	rrf	___xxtofl@arg+2,f
  2068  0393  0CA3               	rrf	___xxtofl@arg+1,f
  2069  0394  0CA2               	rrf	___xxtofl@arg,f
  2070  0395  3EFF               	addlw	-1
  2071  0396  1D03               	skipz
  2072  0397  2B90               	goto	u1625
  2073  0398                     l671:
  2074  0398  30FF               	movlw	255
  2075  0399  0525               	andwf	___xxtofl@arg+3,w
  2076  039A  1D03               	btfss	3,2
  2077  039B  2B9D               	goto	u1631
  2078  039C  2B9E               	goto	u1630
  2079  039D                     u1631:
  2080  039D  2B7D               	goto	l1596
  2081  039E                     u1630:
  2082  039E  2BAA               	goto	l1604
  2083  039F                     l1602:
  2084  039F  3001               	movlw	1
  2085  03A0  02A1               	subwf	___xxtofl@exp,f
  2086  03A1  3001               	movlw	1
  2087  03A2  00F6               	movwf	??___xxtofl
  2088  03A3                     u1645:
  2089  03A3  1003               	clrc
  2090  03A4  0DA2               	rlf	___xxtofl@arg,f
  2091  03A5  0DA3               	rlf	___xxtofl@arg+1,f
  2092  03A6  0DA4               	rlf	___xxtofl@arg+2,f
  2093  03A7  0DA5               	rlf	___xxtofl@arg+3,f
  2094  03A8  0BF6               	decfsz	??___xxtofl,f
  2095  03A9  2BA3               	goto	u1645
  2096  03AA                     l1604:
  2097  03AA  1BA4               	btfsc	___xxtofl@arg+2,7
  2098  03AB  2BAD               	goto	u1651
  2099  03AC  2BAE               	goto	u1650
  2100  03AD                     u1651:
  2101  03AD  2BB4               	goto	l678
  2102  03AE                     u1650:
  2103  03AE                     l1606:
  2104  03AE  3002               	movlw	2
  2105  03AF  0221               	subwf	___xxtofl@exp,w
  2106  03B0  1803               	skipnc
  2107  03B1  2BB3               	goto	u1661
  2108  03B2  2BB4               	goto	u1660
  2109  03B3                     u1661:
  2110  03B3  2B9F               	goto	l1602
  2111  03B4                     u1660:
  2112  03B4                     l678:
  2113  03B4  1821               	btfsc	___xxtofl@exp,0
  2114  03B5  2BB7               	goto	u1671
  2115  03B6  2BB8               	goto	u1670
  2116  03B7                     u1671:
  2117  03B7  2BC0               	goto	l679
  2118  03B8                     u1670:
  2119  03B8                     l1608:
  2120  03B8  30FF               	movlw	255
  2121  03B9  05A2               	andwf	___xxtofl@arg,f
  2122  03BA  30FF               	movlw	255
  2123  03BB  05A3               	andwf	___xxtofl@arg+1,f
  2124  03BC  307F               	movlw	127
  2125  03BD  05A4               	andwf	___xxtofl@arg+2,f
  2126  03BE  30FF               	movlw	255
  2127  03BF  05A5               	andwf	___xxtofl@arg+3,f
  2128  03C0                     l679:
  2129  03C0  1003               	clrc
  2130  03C1  0CA1               	rrf	___xxtofl@exp,f
  2131  03C2                     l1610:
  2132  03C2  0821               	movf	___xxtofl@exp,w
  2133  03C3  00F6               	movwf	??___xxtofl
  2134  03C4  01F7               	clrf	??___xxtofl+1
  2135  03C5  01F8               	clrf	??___xxtofl+2
  2136  03C6  01F9               	clrf	??___xxtofl+3
  2137  03C7  3018               	movlw	24
  2138  03C8                     u1685:
  2139  03C8  1003               	clrc
  2140  03C9  0DF6               	rlf	??___xxtofl,f
  2141  03CA  0DF7               	rlf	??___xxtofl+1,f
  2142  03CB  0DF8               	rlf	??___xxtofl+2,f
  2143  03CC  0DF9               	rlf	??___xxtofl+3,f
  2144  03CD                     u1680:
  2145  03CD  3EFF               	addlw	-1
  2146  03CE  1D03               	skipz
  2147  03CF  2BC8               	goto	u1685
  2148  03D0  0876               	movf	??___xxtofl,w
  2149  03D1  04A2               	iorwf	___xxtofl@arg,f
  2150  03D2  0877               	movf	??___xxtofl+1,w
  2151  03D3  04A3               	iorwf	___xxtofl@arg+1,f
  2152  03D4  0878               	movf	??___xxtofl+2,w
  2153  03D5  04A4               	iorwf	___xxtofl@arg+2,f
  2154  03D6  0879               	movf	??___xxtofl+3,w
  2155  03D7  04A5               	iorwf	___xxtofl@arg+3,f
  2156  03D8                     l1612:
  2157  03D8  0820               	movf	___xxtofl@sign,w
  2158  03D9  1903               	btfsc	3,2
  2159  03DA  2BDC               	goto	u1691
  2160  03DB  2BDD               	goto	u1690
  2161  03DC                     u1691:
  2162  03DC  2BE2               	goto	l1618
  2163  03DD                     u1690:
  2164  03DD                     l1614:
  2165  03DD  1FF5               	btfss	___xxtofl@val+3,7
  2166  03DE  2BE0               	goto	u1701
  2167  03DF  2BE1               	goto	u1700
  2168  03E0                     u1701:
  2169  03E0  2BE2               	goto	l1618
  2170  03E1                     u1700:
  2171  03E1                     l1616:
  2172  03E1  17A5               	bsf	___xxtofl@arg+3,7
  2173  03E2                     l1618:
  2174  03E2  0825               	movf	___xxtofl@arg+3,w
  2175  03E3  00F5               	movwf	?___xxtofl+3
  2176  03E4  0824               	movf	___xxtofl@arg+2,w
  2177  03E5  00F4               	movwf	?___xxtofl+2
  2178  03E6  0823               	movf	___xxtofl@arg+1,w
  2179  03E7  00F3               	movwf	?___xxtofl+1
  2180  03E8  0822               	movf	___xxtofl@arg,w
  2181  03E9  00F2               	movwf	?___xxtofl
  2182  03EA                     l667:
  2183  03EA  0008               	return
  2184  03EB                     __end_of___xxtofl:
  2185                           
  2186                           	psect	text10
  2187  03EB                     __ptext10:	
  2188 ;; *************** function ___fltol *****************
  2189 ;; Defined at:
  2190 ;;		line 43 in file "C:\Program Files\Microchip\xc8\v2.31\pic\sources\c90\common\fltol.c"
  2191 ;; Parameters:    Size  Location     Type
  2192 ;;  f1              4   32[BANK0 ] unsigned char 
  2193 ;; Auto vars:     Size  Location     Type
  2194 ;;  exp1            1   42[BANK0 ] unsigned char 
  2195 ;;  sign1           1   41[BANK0 ] unsigned char 
  2196 ;; Return value:  Size  Location     Type
  2197 ;;                  4   32[BANK0 ] long 
  2198 ;; Registers used:
  2199 ;;		wreg, status,2, status,0
  2200 ;; Tracked objects:
  2201 ;;		On entry : 0/0
  2202 ;;		On exit  : 0/0
  2203 ;;		Unchanged: 0/0
  2204 ;; Data sizes:     COMMON   BANK0   BANK1   BANK3   BANK2
  2205 ;;      Params:         0       4       0       0       0
  2206 ;;      Locals:         0       2       0       0       0
  2207 ;;      Temps:          0       5       0       0       0
  2208 ;;      Totals:         0      11       0       0       0
  2209 ;;Total ram usage:       11 bytes
  2210 ;; Hardware stack levels used:    1
  2211 ;; Hardware stack levels required when called:    1
  2212 ;; This function calls:
  2213 ;;		Nothing
  2214 ;; This function is called by:
  2215 ;;		_main
  2216 ;; This function uses a non-reentrant model
  2217 ;;
  2218                           
  2219                           
  2220                           ;psect for function ___fltol
  2221  03EB                     ___fltol:
  2222  03EB                     l1666:	
  2223                           ;incstack = 0
  2224                           ; Regs used in ___fltol: [wreg+status,2+status,0]
  2225                           
  2226  03EB  1003               	clrc
  2227  03EC  1283               	bcf	3,5	;RP0=0, select bank0
  2228  03ED  1303               	bcf	3,6	;RP1=0, select bank0
  2229  03EE  0D42               	rlf	___fltol@f1+2,w
  2230  03EF  0D43               	rlf	___fltol@f1+3,w
  2231  03F0  00C4               	movwf	??___fltol
  2232  03F1  0844               	movf	??___fltol,w
  2233  03F2  00CA               	movwf	___fltol@exp1
  2234  03F3  084A               	movf	___fltol@exp1,w
  2235  03F4  1D03               	btfss	3,2
  2236  03F5  2BF7               	goto	u1751
  2237  03F6  2BF8               	goto	u1750
  2238  03F7                     u1751:
  2239  03F7  2C01               	goto	l1672
  2240  03F8                     u1750:
  2241  03F8                     l1668:
  2242  03F8  3000               	movlw	0
  2243  03F9  00C3               	movwf	?___fltol+3
  2244  03FA  3000               	movlw	0
  2245  03FB  00C2               	movwf	?___fltol+2
  2246  03FC  3000               	movlw	0
  2247  03FD  00C1               	movwf	?___fltol+1
  2248  03FE  3000               	movlw	0
  2249  03FF  00C0               	movwf	?___fltol
  2250  0400  2C66               	goto	l418
  2251  0401                     l1672:
  2252  0401  0840               	movf	___fltol@f1,w
  2253  0402  00C4               	movwf	??___fltol
  2254  0403  0841               	movf	___fltol@f1+1,w
  2255  0404  00C5               	movwf	??___fltol+1
  2256  0405  0842               	movf	___fltol@f1+2,w
  2257  0406  00C6               	movwf	??___fltol+2
  2258  0407  0843               	movf	___fltol@f1+3,w
  2259  0408  00C7               	movwf	??___fltol+3
  2260  0409  301F               	movlw	31
  2261  040A                     u1765:
  2262  040A  1003               	clrc
  2263  040B  0CC7               	rrf	??___fltol+3,f
  2264  040C  0CC6               	rrf	??___fltol+2,f
  2265  040D  0CC5               	rrf	??___fltol+1,f
  2266  040E  0CC4               	rrf	??___fltol,f
  2267  040F                     u1760:
  2268  040F  3EFF               	addlw	-1
  2269  0410  1D03               	skipz
  2270  0411  2C0A               	goto	u1765
  2271  0412  0844               	movf	??___fltol,w
  2272  0413  00C8               	movwf	??___fltol+4
  2273  0414  0848               	movf	??___fltol+4,w
  2274  0415  00C9               	movwf	___fltol@sign1
  2275  0416                     l1674:
  2276  0416  17C2               	bsf	___fltol@f1+2,7
  2277  0417                     l1676:
  2278  0417  30FF               	movlw	255
  2279  0418  05C0               	andwf	___fltol@f1,f
  2280  0419  30FF               	movlw	255
  2281  041A  05C1               	andwf	___fltol@f1+1,f
  2282  041B  30FF               	movlw	255
  2283  041C  05C2               	andwf	___fltol@f1+2,f
  2284  041D  3000               	movlw	0
  2285  041E  05C3               	andwf	___fltol@f1+3,f
  2286  041F                     l1678:
  2287  041F  3096               	movlw	150
  2288  0420  02CA               	subwf	___fltol@exp1,f
  2289  0421                     l1680:
  2290  0421  1FCA               	btfss	___fltol@exp1,7
  2291  0422  2C24               	goto	u1771
  2292  0423  2C25               	goto	u1770
  2293  0424                     u1771:
  2294  0424  2C3F               	goto	l1690
  2295  0425                     u1770:
  2296  0425                     l1682:
  2297  0425  084A               	movf	___fltol@exp1,w
  2298  0426  3A80               	xorlw	128
  2299  0427  3E97               	addlw	151
  2300  0428  1803               	skipnc
  2301  0429  2C2B               	goto	u1781
  2302  042A  2C2C               	goto	u1780
  2303  042B                     u1781:
  2304  042B  2C2D               	goto	l1688
  2305  042C                     u1780:
  2306  042C  2BF8               	goto	l1668
  2307  042D                     l1688:
  2308  042D  3001               	movlw	1
  2309  042E                     u1795:
  2310  042E  1003               	clrc
  2311  042F  0CC3               	rrf	___fltol@f1+3,f
  2312  0430  0CC2               	rrf	___fltol@f1+2,f
  2313  0431  0CC1               	rrf	___fltol@f1+1,f
  2314  0432  0CC0               	rrf	___fltol@f1,f
  2315  0433  3EFF               	addlw	-1
  2316  0434  1D03               	skipz
  2317  0435  2C2E               	goto	u1795
  2318  0436  3001               	movlw	1
  2319  0437  00C4               	movwf	??___fltol
  2320  0438  0844               	movf	??___fltol,w
  2321  0439  07CA               	addwf	___fltol@exp1,f
  2322  043A  1D03               	btfss	3,2
  2323  043B  2C3D               	goto	u1801
  2324  043C  2C3E               	goto	u1800
  2325  043D                     u1801:
  2326  043D  2C2D               	goto	l1688
  2327  043E                     u1800:
  2328  043E  2C56               	goto	l1698
  2329  043F                     l1690:
  2330  043F  3020               	movlw	32
  2331  0440  024A               	subwf	___fltol@exp1,w
  2332  0441  1C03               	skipc
  2333  0442  2C44               	goto	u1811
  2334  0443  2C45               	goto	u1810
  2335  0444                     u1811:
  2336  0444  2C51               	goto	l425
  2337  0445                     u1810:
  2338  0445  2BF8               	goto	l1668
  2339  0446                     l1696:
  2340  0446  3001               	movlw	1
  2341  0447  00C4               	movwf	??___fltol
  2342  0448                     u1825:
  2343  0448  1003               	clrc
  2344  0449  0DC0               	rlf	___fltol@f1,f
  2345  044A  0DC1               	rlf	___fltol@f1+1,f
  2346  044B  0DC2               	rlf	___fltol@f1+2,f
  2347  044C  0DC3               	rlf	___fltol@f1+3,f
  2348  044D  0BC4               	decfsz	??___fltol,f
  2349  044E  2C48               	goto	u1825
  2350  044F  3001               	movlw	1
  2351  0450  02CA               	subwf	___fltol@exp1,f
  2352  0451                     l425:
  2353  0451  084A               	movf	___fltol@exp1,w
  2354  0452  1D03               	btfss	3,2
  2355  0453  2C55               	goto	u1831
  2356  0454  2C56               	goto	u1830
  2357  0455                     u1831:
  2358  0455  2C46               	goto	l1696
  2359  0456                     u1830:
  2360  0456                     l1698:
  2361  0456  0849               	movf	___fltol@sign1,w
  2362  0457  1903               	btfsc	3,2
  2363  0458  2C5A               	goto	u1841
  2364  0459  2C5B               	goto	u1840
  2365  045A                     u1841:
  2366  045A  2C66               	goto	l428
  2367  045B                     u1840:
  2368  045B                     l1700:
  2369  045B  09C0               	comf	___fltol@f1,f
  2370  045C  09C1               	comf	___fltol@f1+1,f
  2371  045D  09C2               	comf	___fltol@f1+2,f
  2372  045E  09C3               	comf	___fltol@f1+3,f
  2373  045F  0AC0               	incf	___fltol@f1,f
  2374  0460  1903               	skipnz
  2375  0461  0AC1               	incf	___fltol@f1+1,f
  2376  0462  1903               	skipnz
  2377  0463  0AC2               	incf	___fltol@f1+2,f
  2378  0464  1903               	skipnz
  2379  0465  0AC3               	incf	___fltol@f1+3,f
  2380  0466                     l428:
  2381  0466                     l418:
  2382  0466  0008               	return
  2383  0467                     __end_of___fltol:
  2384                           
  2385                           	psect	text11
  2386  001A                     __ptext11:	
  2387 ;; *************** function ___fldiv *****************
  2388 ;; Defined at:
  2389 ;;		line 8 in file "C:\Program Files\Microchip\xc8\v2.31\pic\sources\c90\common\sprcdiv.c"
  2390 ;; Parameters:    Size  Location     Type
  2391 ;;  a               4    6[BANK0 ] long 
  2392 ;;  b               4   10[BANK0 ] long 
  2393 ;; Auto vars:     Size  Location     Type
  2394 ;;  grs             4   26[BANK0 ] unsigned long 
  2395 ;;  rem             4   19[BANK0 ] unsigned long 
  2396 ;;  new_exp         2   24[BANK0 ] int 
  2397 ;;  aexp            1   31[BANK0 ] unsigned char 
  2398 ;;  bexp            1   30[BANK0 ] unsigned char 
  2399 ;;  sign            1   23[BANK0 ] unsigned char 
  2400 ;; Return value:  Size  Location     Type
  2401 ;;                  4    6[BANK0 ] unsigned char 
  2402 ;; Registers used:
  2403 ;;		wreg, status,2, status,0, btemp+1
  2404 ;; Tracked objects:
  2405 ;;		On entry : 0/0
  2406 ;;		On exit  : 0/0
  2407 ;;		Unchanged: 0/0
  2408 ;; Data sizes:     COMMON   BANK0   BANK1   BANK3   BANK2
  2409 ;;      Params:         0       8       0       0       0
  2410 ;;      Locals:         0      13       0       0       0
  2411 ;;      Temps:          0       5       0       0       0
  2412 ;;      Totals:         0      26       0       0       0
  2413 ;;Total ram usage:       26 bytes
  2414 ;; Hardware stack levels used:    1
  2415 ;; Hardware stack levels required when called:    1
  2416 ;; This function calls:
  2417 ;;		Nothing
  2418 ;; This function is called by:
  2419 ;;		_main
  2420 ;; This function uses a non-reentrant model
  2421 ;;
  2422                           
  2423                           
  2424                           ;psect for function ___fldiv
  2425  001A                     ___fldiv:
  2426  001A                     l1436:	
  2427                           ;incstack = 0
  2428                           ; Regs used in ___fldiv: [wreg+status,2+status,0+btemp+1]
  2429                           
  2430  001A  1283               	bcf	3,5	;RP0=0, select bank0
  2431  001B  1303               	bcf	3,6	;RP1=0, select bank0
  2432  001C  082D               	movf	___fldiv@b+3,w
  2433  001D  3980               	andlw	128
  2434  001E  00AE               	movwf	??___fldiv
  2435  001F  082E               	movf	??___fldiv,w
  2436  0020  00B7               	movwf	___fldiv@sign
  2437  0021                     l1438:
  2438  0021  082D               	movf	___fldiv@b+3,w
  2439  0022  00AE               	movwf	??___fldiv
  2440  0023  072E               	addwf	??___fldiv,w
  2441  0024  00AF               	movwf	??___fldiv+1
  2442  0025  082F               	movf	??___fldiv+1,w
  2443  0026  00BE               	movwf	___fldiv@bexp
  2444  0027                     l1440:
  2445  0027  1FAC               	btfss	___fldiv@b+2,7
  2446  0028  282A               	goto	u1281
  2447  0029  282B               	goto	u1280
  2448  002A                     u1281:
  2449  002A  282C               	goto	l1444
  2450  002B                     u1280:
  2451  002B                     l1442:
  2452  002B  143E               	bsf	___fldiv@bexp,0
  2453  002C                     l1444:
  2454  002C  083E               	movf	___fldiv@bexp,w
  2455  002D  1903               	btfsc	3,2
  2456  002E  2830               	goto	u1291
  2457  002F  2831               	goto	u1290
  2458  0030                     u1291:
  2459  0030  2841               	goto	l1454
  2460  0031                     u1290:
  2461  0031                     l1446:
  2462  0031  0A3E               	incf	___fldiv@bexp,w
  2463  0032  1D03               	btfss	3,2
  2464  0033  2835               	goto	u1301
  2465  0034  2836               	goto	u1300
  2466  0035                     u1301:
  2467  0035  283E               	goto	l1450
  2468  0036                     u1300:
  2469  0036                     l1448:
  2470  0036  3000               	movlw	0
  2471  0037  00AD               	movwf	___fldiv@b+3
  2472  0038  3000               	movlw	0
  2473  0039  00AC               	movwf	___fldiv@b+2
  2474  003A  3000               	movlw	0
  2475  003B  00AB               	movwf	___fldiv@b+1
  2476  003C  3000               	movlw	0
  2477  003D  00AA               	movwf	___fldiv@b
  2478  003E                     l1450:
  2479  003E  17AC               	bsf	___fldiv@b+2,7
  2480  003F                     l1452:
  2481  003F  01AD               	clrf	___fldiv@b+3
  2482  0040  2849               	goto	l1456
  2483  0041                     l1454:
  2484  0041  3000               	movlw	0
  2485  0042  00AD               	movwf	___fldiv@b+3
  2486  0043  3000               	movlw	0
  2487  0044  00AC               	movwf	___fldiv@b+2
  2488  0045  3000               	movlw	0
  2489  0046  00AB               	movwf	___fldiv@b+1
  2490  0047  3000               	movlw	0
  2491  0048  00AA               	movwf	___fldiv@b
  2492  0049                     l1456:
  2493  0049  0829               	movf	___fldiv@a+3,w
  2494  004A  3980               	andlw	128
  2495  004B  00AE               	movwf	??___fldiv
  2496  004C  082E               	movf	??___fldiv,w
  2497  004D  06B7               	xorwf	___fldiv@sign,f
  2498  004E                     l1458:
  2499  004E  0829               	movf	___fldiv@a+3,w
  2500  004F  00AE               	movwf	??___fldiv
  2501  0050  072E               	addwf	??___fldiv,w
  2502  0051  00AF               	movwf	??___fldiv+1
  2503  0052  082F               	movf	??___fldiv+1,w
  2504  0053  00BF               	movwf	___fldiv@aexp
  2505  0054                     l1460:
  2506  0054  1FA8               	btfss	___fldiv@a+2,7
  2507  0055  2857               	goto	u1311
  2508  0056  2858               	goto	u1310
  2509  0057                     u1311:
  2510  0057  2859               	goto	l1464
  2511  0058                     u1310:
  2512  0058                     l1462:
  2513  0058  143F               	bsf	___fldiv@aexp,0
  2514  0059                     l1464:
  2515  0059  083F               	movf	___fldiv@aexp,w
  2516  005A  1903               	btfsc	3,2
  2517  005B  285D               	goto	u1321
  2518  005C  285E               	goto	u1320
  2519  005D                     u1321:
  2520  005D  286E               	goto	l1474
  2521  005E                     u1320:
  2522  005E                     l1466:
  2523  005E  0A3F               	incf	___fldiv@aexp,w
  2524  005F  1D03               	btfss	3,2
  2525  0060  2862               	goto	u1331
  2526  0061  2863               	goto	u1330
  2527  0062                     u1331:
  2528  0062  286B               	goto	l1470
  2529  0063                     u1330:
  2530  0063                     l1468:
  2531  0063  3000               	movlw	0
  2532  0064  00A9               	movwf	___fldiv@a+3
  2533  0065  3000               	movlw	0
  2534  0066  00A8               	movwf	___fldiv@a+2
  2535  0067  3000               	movlw	0
  2536  0068  00A7               	movwf	___fldiv@a+1
  2537  0069  3000               	movlw	0
  2538  006A  00A6               	movwf	___fldiv@a
  2539  006B                     l1470:
  2540  006B  17A8               	bsf	___fldiv@a+2,7
  2541  006C                     l1472:
  2542  006C  01A9               	clrf	___fldiv@a+3
  2543  006D  2876               	goto	l581
  2544  006E                     l1474:
  2545  006E  3000               	movlw	0
  2546  006F  00A9               	movwf	___fldiv@a+3
  2547  0070  3000               	movlw	0
  2548  0071  00A8               	movwf	___fldiv@a+2
  2549  0072  3000               	movlw	0
  2550  0073  00A7               	movwf	___fldiv@a+1
  2551  0074  3000               	movlw	0
  2552  0075  00A6               	movwf	___fldiv@a
  2553  0076                     l581:
  2554  0076  0829               	movf	___fldiv@a+3,w
  2555  0077  0428               	iorwf	___fldiv@a+2,w
  2556  0078  0427               	iorwf	___fldiv@a+1,w
  2557  0079  0426               	iorwf	___fldiv@a,w
  2558  007A  1D03               	skipz
  2559  007B  287D               	goto	u1341
  2560  007C  287E               	goto	u1340
  2561  007D                     u1341:
  2562  007D  2897               	goto	l1484
  2563  007E                     u1340:
  2564  007E                     l1476:
  2565  007E  3000               	movlw	0
  2566  007F  00AD               	movwf	___fldiv@b+3
  2567  0080  3000               	movlw	0
  2568  0081  00AC               	movwf	___fldiv@b+2
  2569  0082  3000               	movlw	0
  2570  0083  00AB               	movwf	___fldiv@b+1
  2571  0084  3000               	movlw	0
  2572  0085  00AA               	movwf	___fldiv@b
  2573  0086  3080               	movlw	128
  2574  0087  04AC               	iorwf	___fldiv@b+2,f
  2575  0088  307F               	movlw	127
  2576  0089  04AD               	iorwf	___fldiv@b+3,f
  2577  008A                     l1478:
  2578  008A  0837               	movf	___fldiv@sign,w
  2579  008B  00AE               	movwf	??___fldiv
  2580  008C  082E               	movf	??___fldiv,w
  2581  008D  04AD               	iorwf	___fldiv@b+3,f
  2582  008E                     l1480:
  2583  008E  082D               	movf	___fldiv@b+3,w
  2584  008F  00A9               	movwf	?___fldiv+3
  2585  0090  082C               	movf	___fldiv@b+2,w
  2586  0091  00A8               	movwf	?___fldiv+2
  2587  0092  082B               	movf	___fldiv@b+1,w
  2588  0093  00A7               	movwf	?___fldiv+1
  2589  0094  082A               	movf	___fldiv@b,w
  2590  0095  00A6               	movwf	?___fldiv
  2591  0096  29F6               	goto	l583
  2592  0097                     l1484:
  2593  0097  083E               	movf	___fldiv@bexp,w
  2594  0098  1D03               	btfss	3,2
  2595  0099  289B               	goto	u1351
  2596  009A  289C               	goto	u1350
  2597  009B                     u1351:
  2598  009B  28A5               	goto	l1490
  2599  009C                     u1350:
  2600  009C                     l1486:
  2601  009C  3000               	movlw	0
  2602  009D  00A9               	movwf	?___fldiv+3
  2603  009E  3000               	movlw	0
  2604  009F  00A8               	movwf	?___fldiv+2
  2605  00A0  3000               	movlw	0
  2606  00A1  00A7               	movwf	?___fldiv+1
  2607  00A2  3000               	movlw	0
  2608  00A3  00A6               	movwf	?___fldiv
  2609  00A4  29F6               	goto	l583
  2610  00A5                     l1490:
  2611  00A5  083E               	movf	___fldiv@bexp,w
  2612  00A6  00AE               	movwf	??___fldiv
  2613  00A7  01AF               	clrf	??___fldiv+1
  2614  00A8  082F               	movf	??___fldiv+1,w
  2615  00A9  00B1               	movwf	??___fldiv+3
  2616  00AA  083F               	movf	___fldiv@aexp,w
  2617  00AB  022E               	subwf	??___fldiv,w
  2618  00AC  00B0               	movwf	??___fldiv+2
  2619  00AD  1C03               	skipc
  2620  00AE  03B1               	decf	??___fldiv+3,f
  2621  00AF  0830               	movf	??___fldiv+2,w
  2622  00B0  3E7F               	addlw	127
  2623  00B1  00B8               	movwf	___fldiv@new_exp
  2624  00B2  0831               	movf	??___fldiv+3,w
  2625  00B3  1803               	skipnc
  2626  00B4  3E01               	addlw	1
  2627  00B5  3E00               	addlw	0
  2628  00B6  00B9               	movwf	___fldiv@new_exp+1
  2629  00B7                     l1492:
  2630  00B7  082D               	movf	___fldiv@b+3,w
  2631  00B8  00B6               	movwf	___fldiv@rem+3
  2632  00B9  082C               	movf	___fldiv@b+2,w
  2633  00BA  00B5               	movwf	___fldiv@rem+2
  2634  00BB  082B               	movf	___fldiv@b+1,w
  2635  00BC  00B4               	movwf	___fldiv@rem+1
  2636  00BD  082A               	movf	___fldiv@b,w
  2637  00BE  00B3               	movwf	___fldiv@rem
  2638  00BF                     l1494:
  2639  00BF  3000               	movlw	0
  2640  00C0  00AD               	movwf	___fldiv@b+3
  2641  00C1  3000               	movlw	0
  2642  00C2  00AC               	movwf	___fldiv@b+2
  2643  00C3  3000               	movlw	0
  2644  00C4  00AB               	movwf	___fldiv@b+1
  2645  00C5  3000               	movlw	0
  2646  00C6  00AA               	movwf	___fldiv@b
  2647  00C7                     l1496:
  2648  00C7  3000               	movlw	0
  2649  00C8  00BD               	movwf	___fldiv@grs+3
  2650  00C9  3000               	movlw	0
  2651  00CA  00BC               	movwf	___fldiv@grs+2
  2652  00CB  3000               	movlw	0
  2653  00CC  00BB               	movwf	___fldiv@grs+1
  2654  00CD  3000               	movlw	0
  2655  00CE  00BA               	movwf	___fldiv@grs
  2656  00CF                     l1498:
  2657  00CF  01BF               	clrf	___fldiv@aexp
  2658  00D0  291B               	goto	l1518
  2659  00D1                     l1500:
  2660  00D1  083F               	movf	___fldiv@aexp,w
  2661  00D2  1903               	btfsc	3,2
  2662  00D3  28D5               	goto	u1361
  2663  00D4  28D6               	goto	u1360
  2664  00D5                     u1361:
  2665  00D5  28F6               	goto	l1510
  2666  00D6                     u1360:
  2667  00D6                     l1502:
  2668  00D6  3001               	movlw	1
  2669  00D7  00AE               	movwf	??___fldiv
  2670  00D8                     u1375:
  2671  00D8  1003               	clrc
  2672  00D9  0DB3               	rlf	___fldiv@rem,f
  2673  00DA  0DB4               	rlf	___fldiv@rem+1,f
  2674  00DB  0DB5               	rlf	___fldiv@rem+2,f
  2675  00DC  0DB6               	rlf	___fldiv@rem+3,f
  2676  00DD  0BAE               	decfsz	??___fldiv,f
  2677  00DE  28D8               	goto	u1375
  2678  00DF  3001               	movlw	1
  2679  00E0  00AE               	movwf	??___fldiv
  2680  00E1                     u1385:
  2681  00E1  1003               	clrc
  2682  00E2  0DAA               	rlf	___fldiv@b,f
  2683  00E3  0DAB               	rlf	___fldiv@b+1,f
  2684  00E4  0DAC               	rlf	___fldiv@b+2,f
  2685  00E5  0DAD               	rlf	___fldiv@b+3,f
  2686  00E6  0BAE               	decfsz	??___fldiv,f
  2687  00E7  28E1               	goto	u1385
  2688  00E8                     l1504:
  2689  00E8  1FBD               	btfss	___fldiv@grs+3,7
  2690  00E9  28EB               	goto	u1391
  2691  00EA  28EC               	goto	u1390
  2692  00EB                     u1391:
  2693  00EB  28ED               	goto	l1508
  2694  00EC                     u1390:
  2695  00EC                     l1506:
  2696  00EC  142A               	bsf	___fldiv@b,0
  2697  00ED                     l1508:
  2698  00ED  3001               	movlw	1
  2699  00EE  00AE               	movwf	??___fldiv
  2700  00EF                     u1405:
  2701  00EF  1003               	clrc
  2702  00F0  0DBA               	rlf	___fldiv@grs,f
  2703  00F1  0DBB               	rlf	___fldiv@grs+1,f
  2704  00F2  0DBC               	rlf	___fldiv@grs+2,f
  2705  00F3  0DBD               	rlf	___fldiv@grs+3,f
  2706  00F4  0BAE               	decfsz	??___fldiv,f
  2707  00F5  28EF               	goto	u1405
  2708  00F6                     l1510:
  2709  00F6  0829               	movf	___fldiv@a+3,w
  2710  00F7  0236               	subwf	___fldiv@rem+3,w
  2711  00F8  1D03               	skipz
  2712  00F9  2904               	goto	u1415
  2713  00FA  0828               	movf	___fldiv@a+2,w
  2714  00FB  0235               	subwf	___fldiv@rem+2,w
  2715  00FC  1D03               	skipz
  2716  00FD  2904               	goto	u1415
  2717  00FE  0827               	movf	___fldiv@a+1,w
  2718  00FF  0234               	subwf	___fldiv@rem+1,w
  2719  0100  1D03               	skipz
  2720  0101  2904               	goto	u1415
  2721  0102  0826               	movf	___fldiv@a,w
  2722  0103  0233               	subwf	___fldiv@rem,w
  2723  0104                     u1415:
  2724  0104  1C03               	skipc
  2725  0105  2907               	goto	u1411
  2726  0106  2908               	goto	u1410
  2727  0107                     u1411:
  2728  0107  2917               	goto	l1516
  2729  0108                     u1410:
  2730  0108                     l1512:
  2731  0108  173D               	bsf	___fldiv@grs+3,6
  2732  0109                     l1514:
  2733  0109  0826               	movf	___fldiv@a,w
  2734  010A  02B3               	subwf	___fldiv@rem,f
  2735  010B  0827               	movf	___fldiv@a+1,w
  2736  010C  1C03               	skipc
  2737  010D  0F27               	incfsz	___fldiv@a+1,w
  2738  010E  02B4               	subwf	___fldiv@rem+1,f
  2739  010F  0828               	movf	___fldiv@a+2,w
  2740  0110  1C03               	skipc
  2741  0111  0F28               	incfsz	___fldiv@a+2,w
  2742  0112  02B5               	subwf	___fldiv@rem+2,f
  2743  0113  0829               	movf	___fldiv@a+3,w
  2744  0114  1C03               	skipc
  2745  0115  0F29               	incfsz	___fldiv@a+3,w
  2746  0116  02B6               	subwf	___fldiv@rem+3,f
  2747  0117                     l1516:
  2748  0117  3001               	movlw	1
  2749  0118  00AE               	movwf	??___fldiv
  2750  0119  082E               	movf	??___fldiv,w
  2751  011A  07BF               	addwf	___fldiv@aexp,f
  2752  011B                     l1518:
  2753  011B  301A               	movlw	26
  2754  011C  023F               	subwf	___fldiv@aexp,w
  2755  011D  1C03               	skipc
  2756  011E  2920               	goto	u1421
  2757  011F  2921               	goto	u1420
  2758  0120                     u1421:
  2759  0120  28D1               	goto	l1500
  2760  0121                     u1420:
  2761  0121                     l1520:
  2762  0121  0836               	movf	___fldiv@rem+3,w
  2763  0122  0435               	iorwf	___fldiv@rem+2,w
  2764  0123  0434               	iorwf	___fldiv@rem+1,w
  2765  0124  0433               	iorwf	___fldiv@rem,w
  2766  0125  1903               	skipnz
  2767  0126  2928               	goto	u1431
  2768  0127  2929               	goto	u1430
  2769  0128                     u1431:
  2770  0128  2948               	goto	l1534
  2771  0129                     u1430:
  2772  0129                     l1522:
  2773  0129  143A               	bsf	___fldiv@grs,0
  2774  012A  2948               	goto	l1534
  2775  012B                     l1524:
  2776  012B  3001               	movlw	1
  2777  012C  00AE               	movwf	??___fldiv
  2778  012D                     u1445:
  2779  012D  1003               	clrc
  2780  012E  0DAA               	rlf	___fldiv@b,f
  2781  012F  0DAB               	rlf	___fldiv@b+1,f
  2782  0130  0DAC               	rlf	___fldiv@b+2,f
  2783  0131  0DAD               	rlf	___fldiv@b+3,f
  2784  0132  0BAE               	decfsz	??___fldiv,f
  2785  0133  292D               	goto	u1445
  2786  0134                     l1526:
  2787  0134  1FBD               	btfss	___fldiv@grs+3,7
  2788  0135  2937               	goto	u1451
  2789  0136  2938               	goto	u1450
  2790  0137                     u1451:
  2791  0137  2939               	goto	l1530
  2792  0138                     u1450:
  2793  0138                     l1528:
  2794  0138  142A               	bsf	___fldiv@b,0
  2795  0139                     l1530:
  2796  0139  3001               	movlw	1
  2797  013A  00AE               	movwf	??___fldiv
  2798  013B                     u1465:
  2799  013B  1003               	clrc
  2800  013C  0DBA               	rlf	___fldiv@grs,f
  2801  013D  0DBB               	rlf	___fldiv@grs+1,f
  2802  013E  0DBC               	rlf	___fldiv@grs+2,f
  2803  013F  0DBD               	rlf	___fldiv@grs+3,f
  2804  0140  0BAE               	decfsz	??___fldiv,f
  2805  0141  293B               	goto	u1465
  2806  0142                     l1532:
  2807  0142  30FF               	movlw	255
  2808  0143  07B8               	addwf	___fldiv@new_exp,f
  2809  0144  1803               	skipnc
  2810  0145  0AB9               	incf	___fldiv@new_exp+1,f
  2811  0146  30FF               	movlw	255
  2812  0147  07B9               	addwf	___fldiv@new_exp+1,f
  2813  0148                     l1534:
  2814  0148  1FAC               	btfss	___fldiv@b+2,7
  2815  0149  294B               	goto	u1471
  2816  014A  294C               	goto	u1470
  2817  014B                     u1471:
  2818  014B  292B               	goto	l1524
  2819  014C                     u1470:
  2820  014C                     l1536:
  2821  014C  01BF               	clrf	___fldiv@aexp
  2822  014D                     l1538:
  2823  014D  1FBD               	btfss	___fldiv@grs+3,7
  2824  014E  2950               	goto	u1481
  2825  014F  2951               	goto	u1480
  2826  0150                     u1481:
  2827  0150  296D               	goto	l1546
  2828  0151                     u1480:
  2829  0151                     l1540:
  2830  0151  30FF               	movlw	255
  2831  0152  053A               	andwf	___fldiv@grs,w
  2832  0153  00AE               	movwf	??___fldiv
  2833  0154  30FF               	movlw	255
  2834  0155  053B               	andwf	___fldiv@grs+1,w
  2835  0156  00AF               	movwf	??___fldiv+1
  2836  0157  30FF               	movlw	255
  2837  0158  053C               	andwf	___fldiv@grs+2,w
  2838  0159  00B0               	movwf	??___fldiv+2
  2839  015A  307F               	movlw	127
  2840  015B  053D               	andwf	___fldiv@grs+3,w
  2841  015C  00B1               	movwf	??___fldiv+3
  2842  015D  0831               	movf	??___fldiv+3,w
  2843  015E  0430               	iorwf	??___fldiv+2,w
  2844  015F  042F               	iorwf	??___fldiv+1,w
  2845  0160  042E               	iorwf	??___fldiv,w
  2846  0161  1903               	skipnz
  2847  0162  2964               	goto	u1491
  2848  0163  2965               	goto	u1490
  2849  0164                     u1491:
  2850  0164  2968               	goto	l597
  2851  0165                     u1490:
  2852  0165                     l1542:
  2853  0165  01BF               	clrf	___fldiv@aexp
  2854  0166  0ABF               	incf	___fldiv@aexp,f
  2855  0167  296D               	goto	l1546
  2856  0168                     l597:
  2857  0168  1C2A               	btfss	___fldiv@b,0
  2858  0169  296B               	goto	u1501
  2859  016A  296C               	goto	u1500
  2860  016B                     u1501:
  2861  016B  296D               	goto	l1546
  2862  016C                     u1500:
  2863  016C  2965               	goto	l1542
  2864  016D                     l1546:
  2865  016D  083F               	movf	___fldiv@aexp,w
  2866  016E  1903               	btfsc	3,2
  2867  016F  2971               	goto	u1511
  2868  0170  2972               	goto	u1510
  2869  0171                     u1511:
  2870  0171  29A3               	goto	l1556
  2871  0172                     u1510:
  2872  0172                     l1548:
  2873  0172  3001               	movlw	1
  2874  0173  07AA               	addwf	___fldiv@b,f
  2875  0174  3000               	movlw	0
  2876  0175  1803               	skipnc
  2877  0176  3001               	movlw	1
  2878  0177  07AB               	addwf	___fldiv@b+1,f
  2879  0178  3000               	movlw	0
  2880  0179  1803               	skipnc
  2881  017A  3001               	movlw	1
  2882  017B  07AC               	addwf	___fldiv@b+2,f
  2883  017C  3000               	movlw	0
  2884  017D  1803               	skipnc
  2885  017E  3001               	movlw	1
  2886  017F  07AD               	addwf	___fldiv@b+3,f
  2887  0180                     l1550:
  2888  0180  1C2D               	btfss	___fldiv@b+3,0
  2889  0181  2983               	goto	u1521
  2890  0182  2984               	goto	u1520
  2891  0183                     u1521:
  2892  0183  29A3               	goto	l1556
  2893  0184                     u1520:
  2894  0184                     l1552:
  2895  0184  082A               	movf	___fldiv@b,w
  2896  0185  00AE               	movwf	??___fldiv
  2897  0186  082B               	movf	___fldiv@b+1,w
  2898  0187  00AF               	movwf	??___fldiv+1
  2899  0188  082C               	movf	___fldiv@b+2,w
  2900  0189  00B0               	movwf	??___fldiv+2
  2901  018A  082D               	movf	___fldiv@b+3,w
  2902  018B  00B1               	movwf	??___fldiv+3
  2903  018C  3001               	movlw	1
  2904  018D  00B2               	movwf	??___fldiv+4
  2905  018E                     u1535:
  2906  018E  0D31               	rlf	??___fldiv+3,w
  2907  018F  0CB1               	rrf	??___fldiv+3,f
  2908  0190  0CB0               	rrf	??___fldiv+2,f
  2909  0191  0CAF               	rrf	??___fldiv+1,f
  2910  0192  0CAE               	rrf	??___fldiv,f
  2911  0193                     u1530:
  2912  0193  0BB2               	decfsz	??___fldiv+4,f
  2913  0194  298E               	goto	u1535
  2914  0195  0831               	movf	??___fldiv+3,w
  2915  0196  00AD               	movwf	___fldiv@b+3
  2916  0197  0830               	movf	??___fldiv+2,w
  2917  0198  00AC               	movwf	___fldiv@b+2
  2918  0199  082F               	movf	??___fldiv+1,w
  2919  019A  00AB               	movwf	___fldiv@b+1
  2920  019B  082E               	movf	??___fldiv,w
  2921  019C  00AA               	movwf	___fldiv@b
  2922  019D                     l1554:
  2923  019D  3001               	movlw	1
  2924  019E  07B8               	addwf	___fldiv@new_exp,f
  2925  019F  1803               	skipnc
  2926  01A0  0AB9               	incf	___fldiv@new_exp+1,f
  2927  01A1  3000               	movlw	0
  2928  01A2  07B9               	addwf	___fldiv@new_exp+1,f
  2929  01A3                     l1556:
  2930  01A3  0839               	movf	___fldiv@new_exp+1,w
  2931  01A4  3A80               	xorlw	128
  2932  01A5  00FF               	movwf	btemp+1
  2933  01A6  3080               	movlw	128
  2934  01A7  027F               	subwf	btemp+1,w
  2935  01A8  1D03               	skipz
  2936  01A9  29AC               	goto	u1545
  2937  01AA  30FF               	movlw	255
  2938  01AB  0238               	subwf	___fldiv@new_exp,w
  2939  01AC                     u1545:
  2940  01AC  1C03               	skipc
  2941  01AD  29AF               	goto	u1541
  2942  01AE  29B0               	goto	u1540
  2943  01AF                     u1541:
  2944  01AF  29BE               	goto	l1560
  2945  01B0                     u1540:
  2946  01B0                     l1558:
  2947  01B0  30FF               	movlw	255
  2948  01B1  1283               	bcf	3,5	;RP0=0, select bank0
  2949  01B2  1303               	bcf	3,6	;RP1=0, select bank0
  2950  01B3  00B8               	movwf	___fldiv@new_exp
  2951  01B4  3000               	movlw	0
  2952  01B5  00B9               	movwf	___fldiv@new_exp+1
  2953  01B6  3000               	movlw	0
  2954  01B7  00AD               	movwf	___fldiv@b+3
  2955  01B8  3000               	movlw	0
  2956  01B9  00AC               	movwf	___fldiv@b+2
  2957  01BA  3000               	movlw	0
  2958  01BB  00AB               	movwf	___fldiv@b+1
  2959  01BC  3000               	movlw	0
  2960  01BD  00AA               	movwf	___fldiv@b
  2961  01BE                     l1560:
  2962  01BE  1283               	bcf	3,5	;RP0=0, select bank0
  2963  01BF  1303               	bcf	3,6	;RP1=0, select bank0
  2964  01C0  0839               	movf	___fldiv@new_exp+1,w
  2965  01C1  3A80               	xorlw	128
  2966  01C2  00FF               	movwf	btemp+1
  2967  01C3  3080               	movlw	128
  2968  01C4  027F               	subwf	btemp+1,w
  2969  01C5  1D03               	skipz
  2970  01C6  29C9               	goto	u1555
  2971  01C7  3001               	movlw	1
  2972  01C8  0238               	subwf	___fldiv@new_exp,w
  2973  01C9                     u1555:
  2974  01C9  1803               	skipnc
  2975  01CA  29CC               	goto	u1551
  2976  01CB  29CD               	goto	u1550
  2977  01CC                     u1551:
  2978  01CC  29DA               	goto	l603
  2979  01CD                     u1550:
  2980  01CD                     l1562:
  2981  01CD  1283               	bcf	3,5	;RP0=0, select bank0
  2982  01CE  1303               	bcf	3,6	;RP1=0, select bank0
  2983  01CF  01B8               	clrf	___fldiv@new_exp
  2984  01D0  01B9               	clrf	___fldiv@new_exp+1
  2985  01D1                     l1564:
  2986  01D1  3000               	movlw	0
  2987  01D2  00AD               	movwf	___fldiv@b+3
  2988  01D3  3000               	movlw	0
  2989  01D4  00AC               	movwf	___fldiv@b+2
  2990  01D5  3000               	movlw	0
  2991  01D6  00AB               	movwf	___fldiv@b+1
  2992  01D7  3000               	movlw	0
  2993  01D8  00AA               	movwf	___fldiv@b
  2994  01D9                     l1566:
  2995  01D9  01B7               	clrf	___fldiv@sign
  2996  01DA                     l603:
  2997  01DA  1283               	bcf	3,5	;RP0=0, select bank0
  2998  01DB  1303               	bcf	3,6	;RP1=0, select bank0
  2999  01DC  0838               	movf	___fldiv@new_exp,w
  3000  01DD  00AE               	movwf	??___fldiv
  3001  01DE  082E               	movf	??___fldiv,w
  3002  01DF  00BE               	movwf	___fldiv@bexp
  3003  01E0                     l1568:
  3004  01E0  1C3E               	btfss	___fldiv@bexp,0
  3005  01E1  29E3               	goto	u1561
  3006  01E2  29E4               	goto	u1560
  3007  01E3                     u1561:
  3008  01E3  29E6               	goto	l1572
  3009  01E4                     u1560:
  3010  01E4                     l1570:
  3011  01E4  17AC               	bsf	___fldiv@b+2,7
  3012  01E5  29EA               	goto	l605
  3013  01E6                     l1572:
  3014  01E6  307F               	movlw	127
  3015  01E7  00AE               	movwf	??___fldiv
  3016  01E8  082E               	movf	??___fldiv,w
  3017  01E9  05AC               	andwf	___fldiv@b+2,f
  3018  01EA                     l605:
  3019  01EA  083E               	movf	___fldiv@bexp,w
  3020  01EB  00AE               	movwf	??___fldiv
  3021  01EC  1003               	clrc
  3022  01ED  0C2E               	rrf	??___fldiv,w
  3023  01EE  00AF               	movwf	??___fldiv+1
  3024  01EF  082F               	movf	??___fldiv+1,w
  3025  01F0  00AD               	movwf	___fldiv@b+3
  3026  01F1  0837               	movf	___fldiv@sign,w
  3027  01F2  00AE               	movwf	??___fldiv
  3028  01F3  082E               	movf	??___fldiv,w
  3029  01F4  04AD               	iorwf	___fldiv@b+3,f
  3030  01F5  288E               	goto	l1480
  3031  01F6                     l583:
  3032  01F6  0008               	return
  3033  01F7                     __end_of___fldiv:
  3034                           
  3035                           	psect	text12
  3036  0534                     __ptext12:	
  3037 ;; *************** function ___awmod *****************
  3038 ;; Defined at:
  3039 ;;		line 5 in file "C:\Program Files\Microchip\xc8\v2.31\pic\sources\c90\common\awmod.c"
  3040 ;; Parameters:    Size  Location     Type
  3041 ;;  divisor         2    2[COMMON] int 
  3042 ;;  dividend        2    4[COMMON] int 
  3043 ;; Auto vars:     Size  Location     Type
  3044 ;;  sign            1    8[COMMON] unsigned char 
  3045 ;;  counter         1    7[COMMON] unsigned char 
  3046 ;; Return value:  Size  Location     Type
  3047 ;;                  2    2[COMMON] int 
  3048 ;; Registers used:
  3049 ;;		wreg, status,2, status,0
  3050 ;; Tracked objects:
  3051 ;;		On entry : 0/0
  3052 ;;		On exit  : 0/0
  3053 ;;		Unchanged: 0/0
  3054 ;; Data sizes:     COMMON   BANK0   BANK1   BANK3   BANK2
  3055 ;;      Params:         4       0       0       0       0
  3056 ;;      Locals:         2       0       0       0       0
  3057 ;;      Temps:          1       0       0       0       0
  3058 ;;      Totals:         7       0       0       0       0
  3059 ;;Total ram usage:        7 bytes
  3060 ;; Hardware stack levels used:    1
  3061 ;; Hardware stack levels required when called:    1
  3062 ;; This function calls:
  3063 ;;		Nothing
  3064 ;; This function is called by:
  3065 ;;		_main
  3066 ;; This function uses a non-reentrant model
  3067 ;;
  3068                           
  3069                           
  3070                           ;psect for function ___awmod
  3071  0534                     ___awmod:
  3072  0534                     l1362:	
  3073                           ;incstack = 0
  3074                           ; Regs used in ___awmod: [wreg+status,2+status,0]
  3075                           
  3076  0534  01F8               	clrf	___awmod@sign
  3077  0535                     l1364:
  3078  0535  1FF5               	btfss	___awmod@dividend+1,7
  3079  0536  2D38               	goto	u1091
  3080  0537  2D39               	goto	u1090
  3081  0538                     u1091:
  3082  0538  2D40               	goto	l1370
  3083  0539                     u1090:
  3084  0539                     l1366:
  3085  0539  09F4               	comf	___awmod@dividend,f
  3086  053A  09F5               	comf	___awmod@dividend+1,f
  3087  053B  0AF4               	incf	___awmod@dividend,f
  3088  053C  1903               	skipnz
  3089  053D  0AF5               	incf	___awmod@dividend+1,f
  3090  053E                     l1368:
  3091  053E  01F8               	clrf	___awmod@sign
  3092  053F  0AF8               	incf	___awmod@sign,f
  3093  0540                     l1370:
  3094  0540  1FF3               	btfss	___awmod@divisor+1,7
  3095  0541  2D43               	goto	u1101
  3096  0542  2D44               	goto	u1100
  3097  0543                     u1101:
  3098  0543  2D49               	goto	l1374
  3099  0544                     u1100:
  3100  0544                     l1372:
  3101  0544  09F2               	comf	___awmod@divisor,f
  3102  0545  09F3               	comf	___awmod@divisor+1,f
  3103  0546  0AF2               	incf	___awmod@divisor,f
  3104  0547  1903               	skipnz
  3105  0548  0AF3               	incf	___awmod@divisor+1,f
  3106  0549                     l1374:
  3107  0549  0872               	movf	___awmod@divisor,w
  3108  054A  0473               	iorwf	___awmod@divisor+1,w
  3109  054B  1903               	btfsc	3,2
  3110  054C  2D4E               	goto	u1111
  3111  054D  2D4F               	goto	u1110
  3112  054E                     u1111:
  3113  054E  2D7E               	goto	l1392
  3114  054F                     u1110:
  3115  054F                     l1376:
  3116  054F  01F7               	clrf	___awmod@counter
  3117  0550  0AF7               	incf	___awmod@counter,f
  3118  0551  2D5D               	goto	l1382
  3119  0552                     l1378:
  3120  0552  3001               	movlw	1
  3121  0553                     u1125:
  3122  0553  1003               	clrc
  3123  0554  0DF2               	rlf	___awmod@divisor,f
  3124  0555  0DF3               	rlf	___awmod@divisor+1,f
  3125  0556  3EFF               	addlw	-1
  3126  0557  1D03               	skipz
  3127  0558  2D53               	goto	u1125
  3128  0559                     l1380:
  3129  0559  3001               	movlw	1
  3130  055A  00F6               	movwf	??___awmod
  3131  055B  0876               	movf	??___awmod,w
  3132  055C  07F7               	addwf	___awmod@counter,f
  3133  055D                     l1382:
  3134  055D  1FF3               	btfss	___awmod@divisor+1,7
  3135  055E  2D60               	goto	u1131
  3136  055F  2D61               	goto	u1130
  3137  0560                     u1131:
  3138  0560  2D52               	goto	l1378
  3139  0561                     u1130:
  3140  0561                     l1384:
  3141  0561  0873               	movf	___awmod@divisor+1,w
  3142  0562  0275               	subwf	___awmod@dividend+1,w
  3143  0563  1D03               	skipz
  3144  0564  2D67               	goto	u1145
  3145  0565  0872               	movf	___awmod@divisor,w
  3146  0566  0274               	subwf	___awmod@dividend,w
  3147  0567                     u1145:
  3148  0567  1C03               	skipc
  3149  0568  2D6A               	goto	u1141
  3150  0569  2D6B               	goto	u1140
  3151  056A                     u1141:
  3152  056A  2D71               	goto	l1388
  3153  056B                     u1140:
  3154  056B                     l1386:
  3155  056B  0872               	movf	___awmod@divisor,w
  3156  056C  02F4               	subwf	___awmod@dividend,f
  3157  056D  0873               	movf	___awmod@divisor+1,w
  3158  056E  1C03               	skipc
  3159  056F  03F5               	decf	___awmod@dividend+1,f
  3160  0570  02F5               	subwf	___awmod@dividend+1,f
  3161  0571                     l1388:
  3162  0571  3001               	movlw	1
  3163  0572                     u1155:
  3164  0572  1003               	clrc
  3165  0573  0CF3               	rrf	___awmod@divisor+1,f
  3166  0574  0CF2               	rrf	___awmod@divisor,f
  3167  0575  3EFF               	addlw	-1
  3168  0576  1D03               	skipz
  3169  0577  2D72               	goto	u1155
  3170  0578                     l1390:
  3171  0578  3001               	movlw	1
  3172  0579  02F7               	subwf	___awmod@counter,f
  3173  057A  1D03               	btfss	3,2
  3174  057B  2D7D               	goto	u1161
  3175  057C  2D7E               	goto	u1160
  3176  057D                     u1161:
  3177  057D  2D61               	goto	l1384
  3178  057E                     u1160:
  3179  057E                     l1392:
  3180  057E  0878               	movf	___awmod@sign,w
  3181  057F  1903               	btfsc	3,2
  3182  0580  2D82               	goto	u1171
  3183  0581  2D83               	goto	u1170
  3184  0582                     u1171:
  3185  0582  2D88               	goto	l1396
  3186  0583                     u1170:
  3187  0583                     l1394:
  3188  0583  09F4               	comf	___awmod@dividend,f
  3189  0584  09F5               	comf	___awmod@dividend+1,f
  3190  0585  0AF4               	incf	___awmod@dividend,f
  3191  0586  1903               	skipnz
  3192  0587  0AF5               	incf	___awmod@dividend+1,f
  3193  0588                     l1396:
  3194  0588  0875               	movf	___awmod@dividend+1,w
  3195  0589  00F3               	movwf	?___awmod+1
  3196  058A  0874               	movf	___awmod@dividend,w
  3197  058B  00F2               	movwf	?___awmod
  3198  058C                     l398:
  3199  058C  0008               	return
  3200  058D                     __end_of___awmod:
  3201                           
  3202                           	psect	text13
  3203  0467                     __ptext13:	
  3204 ;; *************** function ___awdiv *****************
  3205 ;; Defined at:
  3206 ;;		line 5 in file "C:\Program Files\Microchip\xc8\v2.31\pic\sources\c90\common\awdiv.c"
  3207 ;; Parameters:    Size  Location     Type
  3208 ;;  divisor         2    2[COMMON] int 
  3209 ;;  dividend        2    4[COMMON] int 
  3210 ;; Auto vars:     Size  Location     Type
  3211 ;;  quotient        2    9[COMMON] int 
  3212 ;;  sign            1    8[COMMON] unsigned char 
  3213 ;;  counter         1    7[COMMON] unsigned char 
  3214 ;; Return value:  Size  Location     Type
  3215 ;;                  2    2[COMMON] int 
  3216 ;; Registers used:
  3217 ;;		wreg, status,2, status,0
  3218 ;; Tracked objects:
  3219 ;;		On entry : 0/0
  3220 ;;		On exit  : 0/0
  3221 ;;		Unchanged: 0/0
  3222 ;; Data sizes:     COMMON   BANK0   BANK1   BANK3   BANK2
  3223 ;;      Params:         4       0       0       0       0
  3224 ;;      Locals:         4       0       0       0       0
  3225 ;;      Temps:          1       0       0       0       0
  3226 ;;      Totals:         9       0       0       0       0
  3227 ;;Total ram usage:        9 bytes
  3228 ;; Hardware stack levels used:    1
  3229 ;; Hardware stack levels required when called:    1
  3230 ;; This function calls:
  3231 ;;		Nothing
  3232 ;; This function is called by:
  3233 ;;		_main
  3234 ;; This function uses a non-reentrant model
  3235 ;;
  3236                           
  3237                           
  3238                           ;psect for function ___awdiv
  3239  0467                     ___awdiv:
  3240  0467                     l1318:	
  3241                           ;incstack = 0
  3242                           ; Regs used in ___awdiv: [wreg+status,2+status,0]
  3243                           
  3244  0467  01F8               	clrf	___awdiv@sign
  3245  0468                     l1320:
  3246  0468  1FF3               	btfss	___awdiv@divisor+1,7
  3247  0469  2C6B               	goto	u991
  3248  046A  2C6C               	goto	u990
  3249  046B                     u991:
  3250  046B  2C73               	goto	l1326
  3251  046C                     u990:
  3252  046C                     l1322:
  3253  046C  09F2               	comf	___awdiv@divisor,f
  3254  046D  09F3               	comf	___awdiv@divisor+1,f
  3255  046E  0AF2               	incf	___awdiv@divisor,f
  3256  046F  1903               	skipnz
  3257  0470  0AF3               	incf	___awdiv@divisor+1,f
  3258  0471                     l1324:
  3259  0471  01F8               	clrf	___awdiv@sign
  3260  0472  0AF8               	incf	___awdiv@sign,f
  3261  0473                     l1326:
  3262  0473  1FF5               	btfss	___awdiv@dividend+1,7
  3263  0474  2C76               	goto	u1001
  3264  0475  2C77               	goto	u1000
  3265  0476                     u1001:
  3266  0476  2C80               	goto	l1332
  3267  0477                     u1000:
  3268  0477                     l1328:
  3269  0477  09F4               	comf	___awdiv@dividend,f
  3270  0478  09F5               	comf	___awdiv@dividend+1,f
  3271  0479  0AF4               	incf	___awdiv@dividend,f
  3272  047A  1903               	skipnz
  3273  047B  0AF5               	incf	___awdiv@dividend+1,f
  3274  047C                     l1330:
  3275  047C  3001               	movlw	1
  3276  047D  00F6               	movwf	??___awdiv
  3277  047E  0876               	movf	??___awdiv,w
  3278  047F  06F8               	xorwf	___awdiv@sign,f
  3279  0480                     l1332:
  3280  0480  01F9               	clrf	___awdiv@quotient
  3281  0481  01FA               	clrf	___awdiv@quotient+1
  3282  0482                     l1334:
  3283  0482  0872               	movf	___awdiv@divisor,w
  3284  0483  0473               	iorwf	___awdiv@divisor+1,w
  3285  0484  1903               	btfsc	3,2
  3286  0485  2C87               	goto	u1011
  3287  0486  2C88               	goto	u1010
  3288  0487                     u1011:
  3289  0487  2CBF               	goto	l1354
  3290  0488                     u1010:
  3291  0488                     l1336:
  3292  0488  01F7               	clrf	___awdiv@counter
  3293  0489  0AF7               	incf	___awdiv@counter,f
  3294  048A  2C96               	goto	l1342
  3295  048B                     l1338:
  3296  048B  3001               	movlw	1
  3297  048C                     u1025:
  3298  048C  1003               	clrc
  3299  048D  0DF2               	rlf	___awdiv@divisor,f
  3300  048E  0DF3               	rlf	___awdiv@divisor+1,f
  3301  048F  3EFF               	addlw	-1
  3302  0490  1D03               	skipz
  3303  0491  2C8C               	goto	u1025
  3304  0492                     l1340:
  3305  0492  3001               	movlw	1
  3306  0493  00F6               	movwf	??___awdiv
  3307  0494  0876               	movf	??___awdiv,w
  3308  0495  07F7               	addwf	___awdiv@counter,f
  3309  0496                     l1342:
  3310  0496  1FF3               	btfss	___awdiv@divisor+1,7
  3311  0497  2C99               	goto	u1031
  3312  0498  2C9A               	goto	u1030
  3313  0499                     u1031:
  3314  0499  2C8B               	goto	l1338
  3315  049A                     u1030:
  3316  049A                     l1344:
  3317  049A  3001               	movlw	1
  3318  049B                     u1045:
  3319  049B  1003               	clrc
  3320  049C  0DF9               	rlf	___awdiv@quotient,f
  3321  049D  0DFA               	rlf	___awdiv@quotient+1,f
  3322  049E  3EFF               	addlw	-1
  3323  049F  1D03               	skipz
  3324  04A0  2C9B               	goto	u1045
  3325  04A1  0873               	movf	___awdiv@divisor+1,w
  3326  04A2  0275               	subwf	___awdiv@dividend+1,w
  3327  04A3  1D03               	skipz
  3328  04A4  2CA7               	goto	u1055
  3329  04A5  0872               	movf	___awdiv@divisor,w
  3330  04A6  0274               	subwf	___awdiv@dividend,w
  3331  04A7                     u1055:
  3332  04A7  1C03               	skipc
  3333  04A8  2CAA               	goto	u1051
  3334  04A9  2CAB               	goto	u1050
  3335  04AA                     u1051:
  3336  04AA  2CB2               	goto	l1350
  3337  04AB                     u1050:
  3338  04AB                     l1346:
  3339  04AB  0872               	movf	___awdiv@divisor,w
  3340  04AC  02F4               	subwf	___awdiv@dividend,f
  3341  04AD  0873               	movf	___awdiv@divisor+1,w
  3342  04AE  1C03               	skipc
  3343  04AF  03F5               	decf	___awdiv@dividend+1,f
  3344  04B0  02F5               	subwf	___awdiv@dividend+1,f
  3345  04B1                     l1348:
  3346  04B1  1479               	bsf	___awdiv@quotient,0
  3347  04B2                     l1350:
  3348  04B2  3001               	movlw	1
  3349  04B3                     u1065:
  3350  04B3  1003               	clrc
  3351  04B4  0CF3               	rrf	___awdiv@divisor+1,f
  3352  04B5  0CF2               	rrf	___awdiv@divisor,f
  3353  04B6  3EFF               	addlw	-1
  3354  04B7  1D03               	skipz
  3355  04B8  2CB3               	goto	u1065
  3356  04B9                     l1352:
  3357  04B9  3001               	movlw	1
  3358  04BA  02F7               	subwf	___awdiv@counter,f
  3359  04BB  1D03               	btfss	3,2
  3360  04BC  2CBE               	goto	u1071
  3361  04BD  2CBF               	goto	u1070
  3362  04BE                     u1071:
  3363  04BE  2C9A               	goto	l1344
  3364  04BF                     u1070:
  3365  04BF                     l1354:
  3366  04BF  0878               	movf	___awdiv@sign,w
  3367  04C0  1903               	btfsc	3,2
  3368  04C1  2CC3               	goto	u1081
  3369  04C2  2CC4               	goto	u1080
  3370  04C3                     u1081:
  3371  04C3  2CC9               	goto	l1358
  3372  04C4                     u1080:
  3373  04C4                     l1356:
  3374  04C4  09F9               	comf	___awdiv@quotient,f
  3375  04C5  09FA               	comf	___awdiv@quotient+1,f
  3376  04C6  0AF9               	incf	___awdiv@quotient,f
  3377  04C7  1903               	skipnz
  3378  04C8  0AFA               	incf	___awdiv@quotient+1,f
  3379  04C9                     l1358:
  3380  04C9  087A               	movf	___awdiv@quotient+1,w
  3381  04CA  00F3               	movwf	?___awdiv+1
  3382  04CB  0879               	movf	___awdiv@quotient,w
  3383  04CC  00F2               	movwf	?___awdiv
  3384  04CD                     l385:
  3385  04CD  0008               	return
  3386  04CE                     __end_of___awdiv:
  3387                           
  3388                           	psect	text14
  3389  0694                     __ptext14:	
  3390 ;; *************** function _ISR *****************
  3391 ;; Defined at:
  3392 ;;		line 56 in file "ultraso.c"
  3393 ;; Parameters:    Size  Location     Type
  3394 ;;		None
  3395 ;; Auto vars:     Size  Location     Type
  3396 ;;		None
  3397 ;; Return value:  Size  Location     Type
  3398 ;;                  1    wreg      void 
  3399 ;; Registers used:
  3400 ;;		None
  3401 ;; Tracked objects:
  3402 ;;		On entry : 0/0
  3403 ;;		On exit  : 0/0
  3404 ;;		Unchanged: 0/0
  3405 ;; Data sizes:     COMMON   BANK0   BANK1   BANK3   BANK2
  3406 ;;      Params:         0       0       0       0       0
  3407 ;;      Locals:         0       0       0       0       0
  3408 ;;      Temps:          2       0       0       0       0
  3409 ;;      Totals:         2       0       0       0       0
  3410 ;;Total ram usage:        2 bytes
  3411 ;; Hardware stack levels used:    1
  3412 ;; This function calls:
  3413 ;;		Nothing
  3414 ;; This function is called by:
  3415 ;;		Interrupt level 1
  3416 ;; This function uses a non-reentrant model
  3417 ;;
  3418                           
  3419                           
  3420                           ;psect for function _ISR
  3421  0694                     _ISR:
  3422  0694                     i1l63:
  3423  0694  0871               	movf	??_ISR+1,w
  3424  0695  008A               	movwf	10
  3425  0696  0E70               	swapf	??_ISR,w
  3426  0697  0083               	movwf	3
  3427  0698  0EFE               	swapf	btemp,f
  3428  0699  0E7E               	swapf	btemp,w
  3429  069A  0009               	retfie
  3430  069B                     __end_of_ISR:
  3431  007E                     btemp	set	126	;btemp
  3432  007E                     wtemp0	set	126
  3433                           
  3434                           	psect	intentry
  3435  0004                     __pintentry:	
  3436                           ;incstack = 0
  3437                           ; Regs used in _ISR: []
  3438                           
  3439  0004                     interrupt_function:
  3440  007E                     saved_w	set	btemp
  3441  0004  00FE               	movwf	btemp
  3442  0005  0E03               	swapf	3,w
  3443  0006  00F0               	movwf	??_ISR
  3444  0007  080A               	movf	10,w
  3445  0008  00F1               	movwf	??_ISR+1
  3446  0009  120A  118A  2E94   	ljmp	_ISR
  3447                           
  3448                           	psect	config
  3449                           
  3450                           ;Config register CONFIG1 @ 0x2007
  3451                           ;	Oscillator Selection bits
  3452                           ;	FOSC = INTRC_NOCLKOUT, INTOSCIO oscillator: I/O function on RA6/OSC2/CLKOUT pin, I/O f
      +                          unction on RA7/OSC1/CLKIN
  3453                           ;	Watchdog Timer Enable bit
  3454                           ;	WDTE = OFF, WDT disabled and can be enabled by SWDTEN bit of the WDTCON register
  3455                           ;	Power-up Timer Enable bit
  3456                           ;	PWRTE = OFF, PWRT disabled
  3457                           ;	RE3/MCLR pin function select bit
  3458                           ;	MCLRE = OFF, RE3/MCLR pin function is digital input, MCLR internally tied to VDD
  3459                           ;	Code Protection bit
  3460                           ;	CP = OFF, Program memory code protection is disabled
  3461                           ;	Data Code Protection bit
  3462                           ;	CPD = OFF, Data memory code protection is disabled
  3463                           ;	Brown Out Reset Selection bits
  3464                           ;	BOREN = OFF, BOR disabled
  3465                           ;	Internal External Switchover bit
  3466                           ;	IESO = OFF, Internal/External Switchover mode is disabled
  3467                           ;	Fail-Safe Clock Monitor Enabled bit
  3468                           ;	FCMEN = OFF, Fail-Safe Clock Monitor is disabled
  3469                           ;	Low Voltage Programming Enable bit
  3470                           ;	LVP = OFF, RB3 pin has digital I/O, HV on MCLR must be used for programming
  3471                           ;	In-Circuit Debugger Mode bit
  3472                           ;	DEBUG = 0x1, unprogrammed default
  3473  2007                     	org	8199
  3474  2007  20D4               	dw	8404
  3475                           
  3476                           ;Config register CONFIG2 @ 0x2008
  3477                           ;	Brown-out Reset Selection bit
  3478                           ;	BOR4V = BOR40V, Brown-out Reset set to 4.0V
  3479                           ;	Flash Program Memory Self Write Enable bits
  3480                           ;	WRT = OFF, Write protection off
  3481  2008                     	org	8200
  3482  2008  3FFF               	dw	16383

Data Sizes:
    Strings     13
    Constant    0
    Data        0
    BSS         5
    Persistent  0
    Stack       0

Auto Spaces:
    Space          Size  Autos    Used
    COMMON           14     11      12
    BANK0            80     47      51
    BANK1            80      0       0
    BANK3            96      0       0
    BANK2            96      0       0

Pointer List with Targets:

    write_string@a	PTR unsigned char  size(1) Largest target is 13
		 -> STR_1(CODE[13]), 


Critical Paths under _main in COMMON

    _main->___awdiv
    _write_string->_write_char
    _write_char->_pin
    _cursor->_CMDs
    _configLCD->_CMDs
    _clear_LCD->_CMDs
    _CMDs->_pin
    ___fltol->___xxtofl
    ___fldiv->___xxtofl

Critical Paths under _ISR in COMMON

    None.

Critical Paths under _main in BANK0

    _main->___fltol
    ___fltol->___fldiv
    ___fldiv->___xxtofl

Critical Paths under _ISR in BANK0

    None.

Critical Paths under _main in BANK1

    None.

Critical Paths under _ISR in BANK1

    None.

Critical Paths under _main in BANK3

    None.

Critical Paths under _ISR in BANK3

    None.

Critical Paths under _main in BANK2

    None.

Critical Paths under _ISR in BANK2

    None.

Call Graph Tables:

 ---------------------------------------------------------------------------------
 (Depth) Function   	        Calls       Base Space   Used Autos Params    Refs
 ---------------------------------------------------------------------------------
 (0) _main                                                 4     4      0    5299
                                             43 BANK0      4     4      0
                            ___awdiv
                            ___awmod
                            ___fldiv
                            ___fltol
                           ___xxtofl
                          _clear_LCD
                          _configLCD
                             _cursor
                              _setup
                         _write_char
                       _write_string
 ---------------------------------------------------------------------------------
 (1) _write_string                                         3     3      0     321
                                              5 COMMON     3     3      0
                         _write_char
 ---------------------------------------------------------------------------------
 (2) _write_char                                           2     2      0     198
                                              3 COMMON     2     2      0
                                _pin
 ---------------------------------------------------------------------------------
 (1) _setup                                                0     0      0       0
 ---------------------------------------------------------------------------------
 (1) _cursor                                               4     3      1     636
                                              6 COMMON     4     3      1
                               _CMDs
 ---------------------------------------------------------------------------------
 (1) _configLCD                                            2     2      0     198
                                              6 COMMON     2     2      0
                               _CMDs
 ---------------------------------------------------------------------------------
 (1) _clear_LCD                                            0     0      0     198
                               _CMDs
 ---------------------------------------------------------------------------------
 (2) _CMDs                                                 3     3      0     198
                                              3 COMMON     3     3      0
                                _pin
 ---------------------------------------------------------------------------------
 (3) _pin                                                  1     1      0     176
                                              2 COMMON     1     1      0
 ---------------------------------------------------------------------------------
 (1) ___xxtofl                                            14    10      4     398
                                              2 COMMON     8     4      4
                                              0 BANK0      6     6      0
 ---------------------------------------------------------------------------------
 (1) ___fltol                                             11     7      4     427
                                             32 BANK0     11     7      4
                            ___fldiv (ARG)
                           ___xxtofl (ARG)
 ---------------------------------------------------------------------------------
 (1) ___fldiv                                             26    18      8    1273
                                              6 BANK0     26    18      8
                           ___xxtofl (ARG)
 ---------------------------------------------------------------------------------
 (1) ___awmod                                              7     3      4     752
                                              2 COMMON     7     3      4
 ---------------------------------------------------------------------------------
 (1) ___awdiv                                              9     5      4     604
                                              2 COMMON     9     5      4
 ---------------------------------------------------------------------------------
 Estimated maximum stack depth 3
 ---------------------------------------------------------------------------------
 (Depth) Function   	        Calls       Base Space   Used Autos Params    Refs
 ---------------------------------------------------------------------------------
 (4) _ISR                                                  2     2      0       0
                                              0 COMMON     2     2      0
 ---------------------------------------------------------------------------------
 Estimated maximum stack depth 4
 ---------------------------------------------------------------------------------

 Call Graph Graphs:

 _main (ROOT)
   ___awdiv
   ___awmod
   ___fldiv
     ___xxtofl (ARG)
   ___fltol
     ___fldiv (ARG)
       ___xxtofl (ARG)
     ___xxtofl (ARG)
   ___xxtofl
   _clear_LCD
     _CMDs
       _pin
   _configLCD
     _CMDs
       _pin
   _cursor
     _CMDs
       _pin
   _setup
   _write_char
     _pin
   _write_string
     _write_char
       _pin

 _ISR (ROOT)

 Address spaces:
Name               Size   Autos  Total    Cost      Usage
BITCOMMON            E      0       0       0        0.0%
EEDATA             100      0       0       0        0.0%
NULL                 0      0       0       0        0.0%
CODE                 0      0       0       0        0.0%
COMMON               E      B       C       1       85.7%
BITSFR0              0      0       0       1        0.0%
SFR0                 0      0       0       1        0.0%
BITSFR1              0      0       0       2        0.0%
SFR1                 0      0       0       2        0.0%
STACK                0      0       0       2        0.0%
ABS                  0      0      3F       3        0.0%
BITBANK0            50      0       0       4        0.0%
BITSFR3              0      0       0       4        0.0%
SFR3                 0      0       0       4        0.0%
BANK0               50     2F      33       5       63.7%
BITSFR2              0      0       0       5        0.0%
SFR2                 0      0       0       5        0.0%
BITBANK1            50      0       0       6        0.0%
BANK1               50      0       0       7        0.0%
BITBANK3            60      0       0       8        0.0%
BANK3               60      0       0       9        0.0%
BITBANK2            60      0       0      10        0.0%
BANK2               60      0       0      11        0.0%
DATA                 0      0      3F      12        0.0%


Microchip Technology PIC Macro Assembler V2.31 build 20201012212115 
Symbol Table                                                                                   Tue Aug 31 11:27:35 2021

           ___fldiv@aexp 003F             ___fldiv@bexp 003E                        pc 0002  
           ___fldiv@sign 0037                       l71 0219                       l72 021A  
                     l81 0613                       l74 021E                       l69 0215  
                     _V1 004F             ___awdiv@sign 0078                       fsr 0004  
                    l110 05A6                      l111 05A7                      l120 05C9  
                    l112 05AD                      l113 05AE                      l122 05CA  
                    l114 05B4                      l106 0596                      l115 05B5  
                    l107 0599                      l116 05BB                      l108 059F  
                    l140 0673                      l117 05BC                      l109 05A0  
                    l125 0657                      l118 05C2                      l134 0637  
                    l119 05C3                      l128 0693                      l137 0533  
                    l146 05EF                      l425 0451                      l418 0466  
                    l603 01DA                      l428 0466                      l605 01EA  
                    l385 04CD                      l581 0076                      l398 058C  
                    l583 01F6                      l671 0398                      l665 0353  
                    l667 03EA                      l597 0168                      l678 03B4  
                    l679 03C0                      _RB0 0030                      _RB4 0034  
                    _RD0 0040                      _RD1 0041                      _RD2 0042  
                    _RE0 0048                      _RD3 0043                      _RE1 0049  
                    _RD4 0044                      _RD5 0045                      _RD6 0046  
                    _RD7 0047                      _ISR 0694                      u900 05A4  
                    u901 05A3                      u910 05AB                      u911 05AA  
                    u920 05B2                      u921 05B1                      u930 05B9  
                    u931 05B8                      u940 05C0                      u941 05BF  
                    u950 05C7                      u951 05C6                      u880 0592  
                    u960 061A                      u881 0591                      u961 0619  
                    u890 059D                      u970 062C                      u891 059C  
                    u971 062B                      u980 05EF                      u981 05EE  
                    u990 046C                      u991 046B                      _pin 058D  
                    fsr0 0004             ___awmod@sign 0078                     ?_ISR 0070  
           ___fltol@exp1 004A                     l1210 05AB                     l1202 058E  
                   l1212 05B2                     l1204 0592                     l1300 061A  
                   l1220 0659                     l1214 05B9                     l1206 059D  
                   l1302 061F                     l1230 066B                     l1222 065C  
                   l1310 05CC                     l1320 0468                     l1216 05C0  
                   l1208 05A4                     l1240 0645                     l1304 0626  
                   l1232 066E                     l1224 0662                     l1312 05CF  
                   l1330 047C                     l1322 046C                     l1218 05C7  
                   l1242 0648                     l1234 0639                     l1306 062C  
                   l1250 05F4                     l1226 0665                     l1314 05DC  
                   l1340 0492                     l1332 0480                     l1324 0471  
                   l1500 00D1                     l1244 064B                     l1236 063C  
                   l1308 0631                     l1260 0608                     l1252 05F7  
                   l1228 0668                     l1316 05E2                     l1350 04B2  
                   l1342 0496                     l1334 0482                     l1326 0473  
                   l1318 0467                     l1502 00D6                     l1510 00F6  
                   l1246 064E                     l1238 0642                     l1270 060F  
                   l1262 0609                     l1254 0601                     l1352 04B9  
                   l1344 049A                     l1336 0488                     l1328 0477  
                   l1520 0121                     l1512 0108                     l1504 00E8  
                   l1440 0027                     l1600 038F                     l1280 04EF  
                   l1272 04CE                     l1264 060C                     l1256 0602  
                   l1248 05F0                     l1346 04AB                     l1338 048B  
                   l1354 04BF                     l1370 0540                     l1362 0534  
                   l1530 0139                     l1522 0129                     l1514 0109  
                   l1506 00EC                     l1450 003E                     l1442 002B  
                   l1610 03C2                     l1602 039F                     l1290 051D  
                   l1282 04F9                     l1274 04D7                     l1266 060D  
                   l1258 0605                     l1356 04C4                     l1348 04B1  
                   l1380 0559                     l1372 0544                     l1364 0535  
                   l1540 0151                     l1532 0142                     l1524 012B  
                   l1516 0117                     l1508 00ED                     l1460 0054  
                   l1452 003F                     l1444 002C                     l1436 001A  
                   l1700 045B                     l1612 03D8                     l1604 03AA  
                   l1292 0523                     l1284 04FF                     l1276 04DD  
                   l1268 060E                     l1358 04C9                     l1390 0578  
                   l1382 055D                     l1374 0549                     l1366 0539  
                   l1550 0180                     l1542 0165                     l1526 0134  
                   l1534 0148                     l1518 011B                     l1470 006B  
                   l1462 0058                     l1446 0031                     l1454 0041  
                   l1438 0021                     l1614 03DD                     l1606 03AE  
                   l1294 052E                     l1286 050A                     l1278 04EB  
                   l1710 020B                     l1702 01F7                     l1384 0561  
                   l1376 054F                     l1392 057E                     l1368 053E  
                   l1560 01BE                     l1552 0184                     l1536 014C  
                   l1528 0138                     l1480 008E                     l1472 006C  
                   l1464 0059                     l1456 0049                     l1448 0036  
                   l1616 03E1                     l1608 03B8                     l1296 0687  
                   l1288 050F                     l1720 0266                     l1712 0212  
                   l1704 0206                     l1394 0583                     l1386 056B  
                   l1378 0552                     l1570 01E4                     l1562 01CD  
                   l1554 019D                     l1546 016D                     l1538 014D  
                   l1490 00A5                     l1466 005E                     l1474 006E  
                   l1458 004E                     l1618 03E2                     l1298 0615  
                   l1730 02A1                     l1722 0273                     l1714 021F  
                   l1706 0209                     l1396 0588                     l1388 0571  
                   l1572 01E6                     l1564 01D1                     l1548 0172  
                   l1556 01A3                     l1492 00B7                     l1476 007E  
                   l1484 0097                     l1468 0063                     l1580 0337  
                   l1740 0301                     l1732 02B7                     l1724 0282  
                   l1716 0223                     l1708 020A                     l1566 01D9  
                   l1558 01B0                     l1494 00BF                     l1486 009C  
                   l1478 008A                     l1590 0364                     l1582 033B  
                   l1742 030B                     l1734 02CC                     l1726 028F  
                   l1718 025E                     l1568 01E0                     l1496 00C7  
                   l1680 0421                     l1672 0401                     l1592 0369  
                   l1584 034B                     l1736 02D6                     l1728 0295  
                   l1744 0321                     l1498 00CF                     l1682 0425  
                   l1690 043F                     l1674 0416                     l1666 03EB  
                   l1594 0376                     l1586 035B                     l1578 0332  
                   l1738 02EC                     l1676 0417                     l1668 03F8  
                   l1596 037D                     l1678 041F                     l1598 0381  
                   l1696 0446                     l1688 042D                     l1698 0456  
                   ?_pin 0070                     STR_1 067A                     u1000 0477  
                   u1001 0476                     u1010 0488                     u1011 0487  
                   u1100 0544                     u1101 0543                     u1030 049A  
                   u1110 054F                     u1031 0499                     u1111 054E  
                   u1025 048C                     u1050 04AB                     u1130 0561  
                   u1051 04AA                     u1131 0560                     u1140 056B  
                   u1300 0036                     u1045 049B                     u1141 056A  
                   u1125 0553                     u1301 0035                     u1070 04BF  
                   u1310 0058                     u1071 04BE                     u1055 04A7  
                   u1311 0057                     u2007 0530                     _CMDs 0638  
                   u1080 04C4                     u1160 057E                     u1320 005E  
                   u1081 04C3                     u1065 04B3                     u1161 057D  
                   u1145 0567                     u1321 005D                     u2017 0652  
                   u1170 0583                     u1090 0539                     u1410 0108  
                   u1330 0063                     u1171 0582                     u1155 0572  
                   u1091 0538                     u1411 0107                     u1331 0062  
                   u1500 016C                     u1420 0121                     u1340 007E  
                   u1501 016B                     u1421 0120                     u1405 00EF  
                   u1341 007D                     u1510 0172                     u1430 0129  
                   u1350 009C                     u1511 0171                     u1431 0128  
                   u1415 0104                     u1351 009B                     u1520 0184  
                   u1360 00D6                     u1280 002B                     u1521 0183  
                   u1361 00D5                     u1281 002A                     u1530 0193  
                   u1450 0138                     u1290 0031                     u1610 037C  
                   u1451 0137                     u1291 0030                     u1611 037B  
                   u1540 01B0                     u1700 03E1                     u1541 01AF  
                   u1445 012D                     u1701 03E0                     u1605 036E  
                   u1550 01CD                     u1470 014C                     u1390 00EC  
                   u1630 039E                     u1551 01CC                     u1535 018E  
                   u1471 014B                     u1391 00EB                     u1375 00D8  
                   u1631 039D                     u1560 01E4                     u1480 0151  
                   u1800 043E                     u1561 01E3                     u1545 01AC  
                   u1481 0150                     u1465 013B                     u1385 00E1  
                   u1801 043D                     u1625 0390                     u1490 0165  
                   u1810 0445                     u1650 03AE                     u1570 0337  
                   u1555 01C9                     u1491 0164                     u1811 0444  
                   u1651 03AD                     u1571 0336                     u1660 03B4  
                   u1580 033B                     u1661 03B3                     u1645 03A3  
                   u1581 033A                     u1830 0456                     u1750 03F8  
                   u1670 03B8                     u1590 035B                     u1831 0455  
                   u1751 03F7                     u1671 03B7                     u1591 035A  
                   u1840 045B                     u1760 040F                     u1680 03CD  
                   u1841 045A                     u1825 0448                     u1770 0425  
                   u1690 03DD                     u1850 0219                     u1771 0424  
                   u1691 03DC                     u1907 0327                     u1851 0218  
                   u1780 042C                     u1860 021E                     u1781 042B  
                   u1765 040A                     u1685 03C8                     u1917 0670  
                   u1861 021D                     u1870 0273                     u1927 04D2  
                   u1871 0272                     u1880 0282                     u1937 04E1  
                   u1881 0281                     u1795 042E                     u1947 04ED  
                   u1875 026F                     u1957 04F7                     u1885 027E  
                   u1967 0501                     u1977 050C                     u1897 020F  
                   u1987 0519                     u1997 0525                     i1l63 0694  
                   _main 01F7                     btemp 007E                     pin@a 0072  
                   start 000C          ___fldiv@new_exp 0038                    ??_ISR 0070  
                  ??_pin 0072                    CMDs@a 0075                    ?_CMDs 0070  
          ___fltol@sign1 0049                    ?_main 0070          __end_of___fldiv 01F7  
        __end_of___awdiv 04CE          __end_of___awmod 058D          __end_of___fltol 0467  
                  _ANSEL 0188          ___awdiv@divisor 0072                    _T1CON 0010  
          write_string@a 0077            write_string@i 0075          ___awdiv@counter 0077  
                  _TMR1H 000F                    _TMR1L 000E                    _PORTA 0005  
                  _PORTB 0006                    _PORTC 0007                    _PORTD 0008  
                  _PORTE 0009                    _TRISD 0088                    _TRISE 0089  
                  _setup 05F0                    main@a 004D                    pclath 000A  
                  status 0003                    wtemp0 007E             __end_of_CMDs 0658  
        __initialization 000F             __end_of_main 032F                   ??_CMDs 0073  
                 ??_main 004B    __size_of_write_string 0025         ___awdiv@dividend 0074  
                 ?_setup 0070                   _ANSELH 0189                   _BUFFER 007B  
                 _TMR1ON 0080         __end_of___xxtofl 03EB             _write_string 05CB  
              ??___fldiv 002E                ??___awdiv 0076                ??___awmod 0076  
              ??___fltol 0044                   _cursor 0614         ___awdiv@quotient 0079  
        ___awmod@divisor 0072          ___awmod@counter 0077                   saved_w 007E  
           ___xxtofl@arg 0022             ___xxtofl@exp 0021             ___xxtofl@val 0072  
__end_of__initialization 0016               ___fltol@f1 0040           __pcstackCOMMON 0070  
          __end_of_setup 0614       __size_of_clear_LCD 000D       __size_of_configLCD 0066  
                ??_setup 0072               __pbssBANK0 004F               __pmaintext 01F7  
             __pintentry 0004                  ?_cursor 0076                ?___xxtofl 0072  
             __stringtab 0674        __end_of_clear_LCD 0694        __end_of_configLCD 0534  
                ___fldiv 001A                  ___awdiv 0467                  ___awmod 0534  
                ___fltol 03EB          __size_of_cursor 0024                  __ptext1 05CB  
                __ptext2 0658                  __ptext3 05F0                  __ptext4 0614  
                __ptext5 04CE                  __ptext6 0687                  __ptext7 0638  
                __ptext8 058D                  __ptext9 032F             __size_of_ISR 0007  
           __size_of_pin 003E               ??___xxtofl 0076         ___awmod@dividend 0074  
   end_of_initialization 0016                  cursor@a 0078                  cursor@b 0076  
                cursor@x 0079            ___xxtofl@sign 0020                _TRISBbits 0086  
            ___fldiv@grs 003A              ___fldiv@rem 0033               _write_char 0658  
         __end_of_cursor 0638      start_initialization 000F              __end_of_ISR 069B  
            __end_of_pin 05CB                 ??_cursor 0077                ___fldiv@a 0026  
              ___fldiv@b 002A              __pbssCOMMON 007B                ___latbits 0002  
          __pcstackBANK0 0020        __size_of___xxtofl 00BC                _clear_LCD 0687  
               ?___fldiv 0026                 ?___awdiv 0072                 ?___awmod 0072  
               ?___fltol 0040                _configLCD 04CE              ?_write_char 0070  
              __pstrings 0674           __size_of_setup 0024        interrupt_function 0004  
               _PIE1bits 008C               ?_clear_LCD 0070                 _PIR1bits 000C  
          ?_write_string 0070               ?_configLCD 0070              __stringbase 0679  
            write_char@a 0074      __size_of_write_char 001C           ??_write_string 0075  
       __size_of___fldiv 01DD         __size_of___awdiv 0067         __size_of___awmod 0059  
       __size_of___fltol 007C       __end_of__stringtab 067A                 ___xxtofl 032F  
               __ptext10 03EB                 __ptext11 001A                 __ptext12 0534  
               __ptext13 0467                 __ptext14 0694            __size_of_CMDs 0020  
          __size_of_main 0138              ??_clear_LCD 0076              ??_configLCD 0076  
             _INTCONbits 000B                 intlevel1 0000                stringcode 0674  
             _OSCCONbits 008F             ??_write_char 0073                 stringdir 0674  
               stringtab 0674     __end_of_write_string 05F0       __end_of_write_char 0674  
